ARM GAS  C:\Users\Reza\AppData\Local\Temp\ccQiDuQC.s 			page 1


   1              		.syntax unified
   2              		.cpu cortex-m3
   3              		.fpu softvfp
   4              		.eabi_attribute 20, 1
   5              		.eabi_attribute 21, 1
   6              		.eabi_attribute 23, 3
   7              		.eabi_attribute 24, 1
   8              		.eabi_attribute 25, 1
   9              		.eabi_attribute 26, 1
  10              		.eabi_attribute 30, 1
  11              		.eabi_attribute 34, 1
  12              		.eabi_attribute 18, 4
  13              		.thumb
  14              		.syntax unified
  15              		.file	"adc_type.c"
  16              		.text
  17              	.Ltext0:
  18              		.cfi_sections	.debug_frame
  19              		.section	.text.ADC_driverIn,"ax",%progbits
  20              		.align	2
  21              		.global	ADC_driverIn
  22              		.thumb
  23              		.thumb_func
  24              		.type	ADC_driverIn, %function
  25              	ADC_driverIn:
  26              	.LFB114:
  27              		.file 1 "source\\rte\\adc_type.c"
   1:source\rte/adc_type.c **** /*
   2:source\rte/adc_type.c ****  * adc_type.c
   3:source\rte/adc_type.c ****  *
   4:source\rte/adc_type.c ****  * Author: Autogenerated by H-DA RTE Generator, (c) Prof. Fromm
   5:source\rte/adc_type.c ****  */
   6:source\rte/adc_type.c **** 
   7:source\rte/adc_type.c **** 
   8:source\rte/adc_type.c **** #include "project.h"
   9:source\rte/adc_type.c **** #include "global.h"
  10:source\rte/adc_type.c **** 
  11:source\rte/adc_type.c **** #include "adc_type.h"
  12:source\rte/adc_type.c **** #include "joystick.h"
  13:source\rte/adc_type.c **** #include "logging.h"
  14:source\rte/adc_type.c **** 
  15:source\rte/adc_type.c **** /*****************************************************************************************
  16:source\rte/adc_type.c ****  *************** Port Wrapper Implementation for ADC signal                     *******************
  17:source\rte/adc_type.c ****  *****************************************************************************************/
  18:source\rte/adc_type.c **** 
  19:source\rte/adc_type.c **** 
  20:source\rte/adc_type.c **** /**
  21:source\rte/adc_type.c ****  * Default IN driver API - may be deleted if not required
  22:source\rte/adc_type.c ****  */
  23:source\rte/adc_type.c **** inline RC_t ADC_driverIn(ADC_data_t *const data)
  24:source\rte/adc_type.c **** {
  28              		.loc 1 24 0
  29              		.cfi_startproc
  30              		@ args = 0, pretend = 0, frame = 8
  31              		@ frame_needed = 0, uses_anonymous_args = 0
  32              	.LVL0:
  33 0000 10B5     		push	{r4, lr}
ARM GAS  C:\Users\Reza\AppData\Local\Temp\ccQiDuQC.s 			page 2


  34              		.cfi_def_cfa_offset 8
  35              		.cfi_offset 4, -8
  36              		.cfi_offset 14, -4
  37 0002 82B0     		sub	sp, sp, #8
  38              		.cfi_def_cfa_offset 16
  39 0004 0446     		mov	r4, r0
  40              	.LVL1:
  25:source\rte/adc_type.c ****     RC_t result=RC_SUCCESS;
  26:source\rte/adc_type.c ****     sint8_t x=0;
  41              		.loc 1 26 0
  42 0006 0023     		movs	r3, #0
  43 0008 8DF80730 		strb	r3, [sp, #7]
  27:source\rte/adc_type.c ****     sint8_t y=0;
  44              		.loc 1 27 0
  45 000c 02A9     		add	r1, sp, #8
  46 000e 01F8023D 		strb	r3, [r1, #-2]!
  28:source\rte/adc_type.c **** 	//Read data from the MCAL driver
  29:source\rte/adc_type.c ****     result = JOYSTICK_ReadPosition(&x, &y);
  47              		.loc 1 29 0
  48 0012 0DF10700 		add	r0, sp, #7
  49              	.LVL2:
  50 0016 FFF7FEFF 		bl	JOYSTICK_ReadPosition
  51              	.LVL3:
  30:source\rte/adc_type.c **** 	//Scale it to the application type
  31:source\rte/adc_type.c ****     if(result == RC_SUCCESS)
  52              		.loc 1 31 0
  53 001a 0246     		mov	r2, r0
  54 001c 98B9     		cbnz	r0, .L2
  32:source\rte/adc_type.c ****     {
  33:source\rte/adc_type.c ****         data->m_x = (100 * x)/128;
  55              		.loc 1 33 0
  56 001e 9DF90710 		ldrsb	r1, [sp, #7]
  57 0022 6423     		movs	r3, #100
  58 0024 03FB01F3 		mul	r3, r3, r1
  59 0028 002B     		cmp	r3, #0
  60 002a 00DA     		bge	.L3
  61 002c 7F33     		adds	r3, r3, #127
  62              	.L3:
  63 002e DB11     		asrs	r3, r3, #7
  64 0030 2370     		strb	r3, [r4]
  34:source\rte/adc_type.c ****         data->m_y = (100 * y)/128;
  65              		.loc 1 34 0
  66 0032 9DF90610 		ldrsb	r1, [sp, #6]
  67 0036 6423     		movs	r3, #100
  68 0038 03FB01F3 		mul	r3, r3, r1
  69 003c 002B     		cmp	r3, #0
  70 003e 00DA     		bge	.L4
  71 0040 7F33     		adds	r3, r3, #127
  72              	.L4:
  73 0042 DB11     		asrs	r3, r3, #7
  74 0044 6370     		strb	r3, [r4, #1]
  75              	.L2:
  35:source\rte/adc_type.c ****     }
  36:source\rte/adc_type.c **** 	return result;
  37:source\rte/adc_type.c **** }
  76              		.loc 1 37 0
  77 0046 1046     		mov	r0, r2
ARM GAS  C:\Users\Reza\AppData\Local\Temp\ccQiDuQC.s 			page 3


  78              	.LVL4:
  79 0048 02B0     		add	sp, sp, #8
  80              		.cfi_def_cfa_offset 8
  81              		@ sp needed
  82 004a 10BD     		pop	{r4, pc}
  83              		.cfi_endproc
  84              	.LFE114:
  85              		.size	ADC_driverIn, .-ADC_driverIn
  86              		.section	.text.ADC_driverOut,"ax",%progbits
  87              		.align	2
  88              		.global	ADC_driverOut
  89              		.thumb
  90              		.thumb_func
  91              		.type	ADC_driverOut, %function
  92              	ADC_driverOut:
  93              	.LFB115:
  38:source\rte/adc_type.c **** 
  39:source\rte/adc_type.c **** /**
  40:source\rte/adc_type.c ****  * Default IN driver API - may be deleted if not required
  41:source\rte/adc_type.c ****  */
  42:source\rte/adc_type.c **** inline RC_t ADC_driverOut(const ADC_data_t  *const data)
  43:source\rte/adc_type.c **** {
  94              		.loc 1 43 0
  95              		.cfi_startproc
  96              		@ args = 0, pretend = 0, frame = 0
  97              		@ frame_needed = 0, uses_anonymous_args = 0
  98              		@ link register save eliminated.
  99              	.LVL5:
  44:source\rte/adc_type.c **** //#error "Add your code here"
  45:source\rte/adc_type.c **** 
  46:source\rte/adc_type.c **** 	//Scale application data to drive format
  47:source\rte/adc_type.c **** 
  48:source\rte/adc_type.c **** 	//Write scaled data to driver
  49:source\rte/adc_type.c **** 
  50:source\rte/adc_type.c **** 	return RC_SUCCESS;
  51:source\rte/adc_type.c **** }
 100              		.loc 1 51 0
 101 0000 0020     		movs	r0, #0
 102              	.LVL6:
 103 0002 7047     		bx	lr
 104              		.cfi_endproc
 105              	.LFE115:
 106              		.size	ADC_driverOut, .-ADC_driverOut
 107              		.text
 108              	.Letext0:
 109              		.file 2 "c:\\program files (x86)\\cypress\\psoc creator\\4.4\\psoc creator\\import\\gnu\\arm\\5.4.
 110              		.file 3 "c:\\program files (x86)\\cypress\\psoc creator\\4.4\\psoc creator\\import\\gnu\\arm\\5.4.
 111              		.file 4 "Generated_Source\\PSoC5/ErikaOS_1_common_ee_types.inc"
 112              		.file 5 "Generated_Source\\PSoC5/ErikaOS_1_cortex_mx_ee_cpu.inc"
 113              		.file 6 ".\\source\\bsw/global.h"
 114              		.file 7 "source\\rte\\adc_type.h"
 115              		.file 8 "Generated_Source\\PSoC5/ErikaOS_1_ee_oo_intfunc.inc"
 116              		.file 9 "Generated_Source\\PSoC5/ErikaOS_1_cortex_mx_ee_context.inc"
 117              		.file 10 "Generated_Source\\PSoC5/ErikaOS_1_common_ee_primitives.inc"
 118              		.file 11 "Generated_Source\\PSoC5/core_cm3.h"
 119              		.file 12 ".\\source\\bsw\\labboard/joystick.h"