ARM GAS  C:\Users\Reza\AppData\Local\Temp\ccEvD18L.s 			page 1


   1              		.syntax unified
   2              		.cpu cortex-m3
   3              		.fpu softvfp
   4              		.eabi_attribute 20, 1
   5              		.eabi_attribute 21, 1
   6              		.eabi_attribute 23, 3
   7              		.eabi_attribute 24, 1
   8              		.eabi_attribute 25, 1
   9              		.eabi_attribute 26, 1
  10              		.eabi_attribute 30, 1
  11              		.eabi_attribute 34, 1
  12              		.eabi_attribute 18, 4
  13              		.thumb
  14              		.syntax unified
  15              		.file	"joystick.c"
  16              		.text
  17              	.Ltext0:
  18              		.cfi_sections	.debug_frame
  19              		.section	.text.JOYSTICK_Init,"ax",%progbits
  20              		.align	2
  21              		.global	JOYSTICK_Init
  22              		.thumb
  23              		.thumb_func
  24              		.type	JOYSTICK_Init, %function
  25              	JOYSTICK_Init:
  26              	.LFB114:
  27              		.file 1 "source\\bsw\\labboard\\joystick.c"
   1:source\bsw\labboard/joystick.c **** /**
   2:source\bsw\labboard/joystick.c **** * \file joystick.c
   3:source\bsw\labboard/joystick.c **** * \author P. Fromm
   4:source\bsw\labboard/joystick.c **** * \date 29.8.17
   5:source\bsw\labboard/joystick.c **** *
   6:source\bsw\labboard/joystick.c **** * \brief Joystick driver
   7:source\bsw\labboard/joystick.c **** *
   8:source\bsw\labboard/joystick.c **** * \copyright Copyright ©2016
   9:source\bsw\labboard/joystick.c **** * Department of electrical engineering and information technology, Hochschule Darmstadt - Universit
  10:source\bsw\labboard/joystick.c **** * Permission to use, copy, modify, and distribute this software and its documentation for education
  11:source\bsw\labboard/joystick.c **** * (unless permitted by h_da) and official h_da projects, is hereby granted for enrolled students of
  12:source\bsw\labboard/joystick.c **** * this paragraph and the following paragraph appear in all copies, modifications, and distributions
  13:source\bsw\labboard/joystick.c **** * Contact Prof.Dr.-Ing. Peter Fromm, peter.fromm@h-da.de, Birkenweg 8 64295 Darmstadt - GERMANY for
  14:source\bsw\labboard/joystick.c **** *
  15:source\bsw\labboard/joystick.c **** * \warning This software is a PROTOTYPE version and is not designed or intended for use in producti
  16:source\bsw\labboard/joystick.c **** * The user represents and warrants that it will NOT use or redistribute the Software for such purpo
  17:source\bsw\labboard/joystick.c **** * This prototype is for research purposes only. This software is provided "AS IS," without a warran
  18:source\bsw\labboard/joystick.c **** */
  19:source\bsw\labboard/joystick.c **** 
  20:source\bsw\labboard/joystick.c **** /*****************************************************************************/
  21:source\bsw\labboard/joystick.c **** /* Include files                                                             */
  22:source\bsw\labboard/joystick.c **** /*****************************************************************************/
  23:source\bsw\labboard/joystick.c **** 
  24:source\bsw\labboard/joystick.c **** #include "project.h"
  25:source\bsw\labboard/joystick.c **** #include "joystick.h"
  26:source\bsw\labboard/joystick.c **** #include "logging.h"
  27:source\bsw\labboard/joystick.c **** 
  28:source\bsw\labboard/joystick.c **** 
  29:source\bsw\labboard/joystick.c **** 
  30:source\bsw\labboard/joystick.c **** /*****************************************************************************/
ARM GAS  C:\Users\Reza\AppData\Local\Temp\ccEvD18L.s 			page 2


  31:source\bsw\labboard/joystick.c **** /* Local pre-processor symbols/macros ('#define')                            */
  32:source\bsw\labboard/joystick.c **** /*****************************************************************************/
  33:source\bsw\labboard/joystick.c **** 
  34:source\bsw\labboard/joystick.c **** /*****************************************************************************/
  35:source\bsw\labboard/joystick.c **** /* Global variable definitions (declared in header file with 'extern')       */
  36:source\bsw\labboard/joystick.c **** /*****************************************************************************/
  37:source\bsw\labboard/joystick.c **** 
  38:source\bsw\labboard/joystick.c **** /*****************************************************************************/
  39:source\bsw\labboard/joystick.c **** /* Local type definitions ('typedef')                                        */
  40:source\bsw\labboard/joystick.c **** /*****************************************************************************/
  41:source\bsw\labboard/joystick.c **** 
  42:source\bsw\labboard/joystick.c **** /*****************************************************************************/
  43:source\bsw\labboard/joystick.c **** /* Local variable definitions ('static')                                     */
  44:source\bsw\labboard/joystick.c **** /*****************************************************************************/
  45:source\bsw\labboard/joystick.c **** 
  46:source\bsw\labboard/joystick.c **** 
  47:source\bsw\labboard/joystick.c **** 
  48:source\bsw\labboard/joystick.c **** /*****************************************************************************/
  49:source\bsw\labboard/joystick.c **** /* Local function prototypes ('static')                                      */
  50:source\bsw\labboard/joystick.c **** /*****************************************************************************/
  51:source\bsw\labboard/joystick.c **** 
  52:source\bsw\labboard/joystick.c **** 
  53:source\bsw\labboard/joystick.c **** /*****************************************************************************/
  54:source\bsw\labboard/joystick.c **** /* Function implementation - global ('extern') and local ('static')          */
  55:source\bsw\labboard/joystick.c **** /*****************************************************************************/
  56:source\bsw\labboard/joystick.c **** 
  57:source\bsw\labboard/joystick.c **** /**
  58:source\bsw\labboard/joystick.c ****  * Initialisation of the Joystick
  59:source\bsw\labboard/joystick.c ****  * @return RC_SUCCESS if all ok
  60:source\bsw\labboard/joystick.c ****  */
  61:source\bsw\labboard/joystick.c **** RC_t JOYSTICK_Init()
  62:source\bsw\labboard/joystick.c **** {
  28              		.loc 1 62 0
  29              		.cfi_startproc
  30              		@ args = 0, pretend = 0, frame = 0
  31              		@ frame_needed = 0, uses_anonymous_args = 0
  32 0000 08B5     		push	{r3, lr}
  33              		.cfi_def_cfa_offset 8
  34              		.cfi_offset 3, -8
  35              		.cfi_offset 14, -4
  63:source\bsw\labboard/joystick.c ****     
  64:source\bsw\labboard/joystick.c ****     JOYSTICK_ADC_XY_Start();
  36              		.loc 1 64 0
  37 0002 FFF7FEFF 		bl	JOYSTICK_ADC_XY_Start
  38              	.LVL0:
  65:source\bsw\labboard/joystick.c ****     //JOYSTICK_ADC_X_IRQ_Enable(); //May be activated later
  66:source\bsw\labboard/joystick.c ****     JOYSTICK_ADC_XY_StartConvert();
  39              		.loc 1 66 0
  40 0006 FFF7FEFF 		bl	JOYSTICK_ADC_XY_StartConvert
  41              	.LVL1:
  67:source\bsw\labboard/joystick.c ****     
  68:source\bsw\labboard/joystick.c ****     return RC_SUCCESS;
  69:source\bsw\labboard/joystick.c **** }
  42              		.loc 1 69 0
  43 000a 0020     		movs	r0, #0
  44 000c 08BD     		pop	{r3, pc}
  45              		.cfi_endproc
ARM GAS  C:\Users\Reza\AppData\Local\Temp\ccEvD18L.s 			page 3


  46              	.LFE114:
  47              		.size	JOYSTICK_Init, .-JOYSTICK_Init
  48 000e 00BF     		.section	.text.JOYSTICK_ReadPosition,"ax",%progbits
  49              		.align	2
  50              		.global	JOYSTICK_ReadPosition
  51              		.thumb
  52              		.thumb_func
  53              		.type	JOYSTICK_ReadPosition, %function
  54              	JOYSTICK_ReadPosition:
  55              	.LFB115:
  70:source\bsw\labboard/joystick.c **** 
  71:source\bsw\labboard/joystick.c **** /**
  72:source\bsw\labboard/joystick.c ****  * Read the Joystick position
  73:source\bsw\labboard/joystick.c ****  * @param sint8_t* x, sint8_t* y - OUT x and y position
  74:source\bsw\labboard/joystick.c ****  * @return RC_SUCCESS if all ok
  75:source\bsw\labboard/joystick.c ****  */
  76:source\bsw\labboard/joystick.c **** RC_t JOYSTICK_ReadPosition(sint8_t* x, sint8_t* y)
  77:source\bsw\labboard/joystick.c **** {
  56              		.loc 1 77 0
  57              		.cfi_startproc
  58              		@ args = 0, pretend = 0, frame = 0
  59              		@ frame_needed = 0, uses_anonymous_args = 0
  60              	.LVL2:
  61 0000 70B5     		push	{r4, r5, r6, lr}
  62              		.cfi_def_cfa_offset 16
  63              		.cfi_offset 4, -16
  64              		.cfi_offset 5, -12
  65              		.cfi_offset 6, -8
  66              		.cfi_offset 14, -4
  67 0002 0646     		mov	r6, r0
  68 0004 0D46     		mov	r5, r1
  78:source\bsw\labboard/joystick.c ****     //LOG_I("JOYSTICK_ReadPosition","");
  79:source\bsw\labboard/joystick.c ****     char str[80];
  80:source\bsw\labboard/joystick.c ****     //Wait for end of conversion
  81:source\bsw\labboard/joystick.c ****     JOYSTICK_ADC_XY_IsEndConversion(JOYSTICK_ADC_XY_WAIT_FOR_RESULT);
  69              		.loc 1 81 0
  70 0006 0020     		movs	r0, #0
  71              	.LVL3:
  72 0008 FFF7FEFF 		bl	JOYSTICK_ADC_XY_IsEndConversion
  73              	.LVL4:
  82:source\bsw\labboard/joystick.c ****     char data[20];
  83:source\bsw\labboard/joystick.c ****     //Read channels
  84:source\bsw\labboard/joystick.c ****     uint16_t posX = JOYSTICK_ADC_XY_GetResult16(0);
  74              		.loc 1 84 0
  75 000c 0020     		movs	r0, #0
  76 000e FFF7FEFF 		bl	JOYSTICK_ADC_XY_GetResult16
  77              	.LVL5:
  78 0012 0446     		mov	r4, r0
  79              	.LVL6:
  85:source\bsw\labboard/joystick.c ****     uint16_t posY = JOYSTICK_ADC_XY_GetResult16(1);
  80              		.loc 1 85 0
  81 0014 0120     		movs	r0, #1
  82 0016 FFF7FEFF 		bl	JOYSTICK_ADC_XY_GetResult16
  83              	.LVL7:
  86:source\bsw\labboard/joystick.c ****     //sprintf(str, "posX: %d", posX);
  87:source\bsw\labboard/joystick.c ****     //LOG_I(str,"");
  88:source\bsw\labboard/joystick.c ****     
ARM GAS  C:\Users\Reza\AppData\Local\Temp\ccEvD18L.s 			page 4


  89:source\bsw\labboard/joystick.c ****     //sprintf(str, "posY: %d", posY);
  90:source\bsw\labboard/joystick.c ****     //LOG_I(str,"");
  91:source\bsw\labboard/joystick.c ****     //Convert to scaled 8bit signal
  92:source\bsw\labboard/joystick.c ****     uint16_t xx = 255 - 382;
  93:source\bsw\labboard/joystick.c ****     
  94:source\bsw\labboard/joystick.c ****     //*x = (sint8_t)((2048 - posX) / 16);
  95:source\bsw\labboard/joystick.c ****     //*y = (sint8_t)((2048 - posY) / 16);
  96:source\bsw\labboard/joystick.c ****     
  97:source\bsw\labboard/joystick.c ****     *x = (sint8_t)(posX - 128);  // divison by 16 is removed because it is not given the
  84              		.loc 1 97 0
  85 001a 803C     		subs	r4, r4, #128
  86              	.LVL8:
  87 001c 3470     		strb	r4, [r6]
  98:source\bsw\labboard/joystick.c ****                                     // correct answer
  99:source\bsw\labboard/joystick.c ****     *y = (sint8_t)((posY - 128));
  88              		.loc 1 99 0
  89 001e 8038     		subs	r0, r0, #128
  90              	.LVL9:
  91 0020 2870     		strb	r0, [r5]
 100:source\bsw\labboard/joystick.c ****         
 101:source\bsw\labboard/joystick.c ****         //sprintf(str, "x: %d", *x);
 102:source\bsw\labboard/joystick.c ****         //LOG_I(str,"");
 103:source\bsw\labboard/joystick.c ****         //sprintf(str, "y: %d", *y);
 104:source\bsw\labboard/joystick.c ****         //LOG_I(str,"");
 105:source\bsw\labboard/joystick.c ****     
 106:source\bsw\labboard/joystick.c ****     return RC_SUCCESS;
 107:source\bsw\labboard/joystick.c **** }
  92              		.loc 1 107 0
  93 0022 0020     		movs	r0, #0
  94 0024 70BD     		pop	{r4, r5, r6, pc}
  95              		.cfi_endproc
  96              	.LFE115:
  97              		.size	JOYSTICK_ReadPosition, .-JOYSTICK_ReadPosition
  98 0026 00BF     		.text
  99              	.Letext0:
 100              		.file 2 "c:\\program files (x86)\\cypress\\psoc creator\\4.4\\psoc creator\\import\\gnu\\arm\\5.4.
 101              		.file 3 "c:\\program files (x86)\\cypress\\psoc creator\\4.4\\psoc creator\\import\\gnu\\arm\\5.4.
 102              		.file 4 "Generated_Source\\PSoC5/ErikaOS_1_common_ee_types.inc"
 103              		.file 5 "Generated_Source\\PSoC5/ErikaOS_1_cortex_mx_ee_cpu.inc"
 104              		.file 6 ".\\source\\bsw/global.h"
 105              		.file 7 "Generated_Source\\PSoC5/ErikaOS_1_ee_oo_intfunc.inc"
 106              		.file 8 "Generated_Source\\PSoC5/ErikaOS_1_cortex_mx_ee_context.inc"
 107              		.file 9 "Generated_Source\\PSoC5/ErikaOS_1_common_ee_primitives.inc"
 108              		.file 10 "Generated_Source\\PSoC5/core_cm3.h"
 109              		.file 11 "Generated_Source\\PSoC5/JOYSTICK_ADC_XY.h"