ARM GAS  C:\Users\Reza\AppData\Local\Temp\ccoXJLjt.s 			page 1


   1              		.syntax unified
   2              		.cpu cortex-m3
   3              		.fpu softvfp
   4              		.eabi_attribute 20, 1
   5              		.eabi_attribute 21, 1
   6              		.eabi_attribute 23, 3
   7              		.eabi_attribute 24, 1
   8              		.eabi_attribute 25, 1
   9              		.eabi_attribute 26, 1
  10              		.eabi_attribute 30, 1
  11              		.eabi_attribute 34, 1
  12              		.eabi_attribute 18, 4
  13              		.thumb
  14              		.syntax unified
  15              		.file	"lcd_type.c"
  16              		.text
  17              	.Ltext0:
  18              		.cfi_sections	.debug_frame
  19              		.section	.text.LCD_driverIn,"ax",%progbits
  20              		.align	2
  21              		.global	LCD_driverIn
  22              		.thumb
  23              		.thumb_func
  24              		.type	LCD_driverIn, %function
  25              	LCD_driverIn:
  26              	.LFB114:
  27              		.file 1 "source\\rte\\lcd_type.c"
   1:source\rte/lcd_type.c **** /*
   2:source\rte/lcd_type.c ****  * lcd_type.c
   3:source\rte/lcd_type.c ****  *
   4:source\rte/lcd_type.c ****  * Author: Autogenerated by H-DA RTE Generator, (c) Prof. Fromm
   5:source\rte/lcd_type.c ****  */
   6:source\rte/lcd_type.c **** 
   7:source\rte/lcd_type.c **** 
   8:source\rte/lcd_type.c **** #include "project.h"
   9:source\rte/lcd_type.c **** #include "global.h"
  10:source\rte/lcd_type.c **** 
  11:source\rte/lcd_type.c **** #include "lcd_type.h"
  12:source\rte/lcd_type.c **** #include "ugui.h"
  13:source\rte/lcd_type.c **** #include "ugui_st7735.h"
  14:source\rte/lcd_type.c **** #include "led.h"
  15:source\rte/lcd_type.c **** #include "logging.h"
  16:source\rte/lcd_type.c **** 
  17:source\rte/lcd_type.c **** /*****************************************************************************************
  18:source\rte/lcd_type.c ****  *************** Port Wrapper Implementation for LCD signal                     *******************
  19:source\rte/lcd_type.c ****  *****************************************************************************************/
  20:source\rte/lcd_type.c **** 
  21:source\rte/lcd_type.c **** 
  22:source\rte/lcd_type.c **** /**
  23:source\rte/lcd_type.c ****  * Default IN driver API - may be deleted if not required
  24:source\rte/lcd_type.c ****  */
  25:source\rte/lcd_type.c **** inline RC_t LCD_driverIn(LCD_data_t *const data)
  26:source\rte/lcd_type.c **** {
  28              		.loc 1 26 0
  29              		.cfi_startproc
  30              		@ args = 0, pretend = 0, frame = 0
  31              		@ frame_needed = 0, uses_anonymous_args = 0
ARM GAS  C:\Users\Reza\AppData\Local\Temp\ccoXJLjt.s 			page 2


  32              		@ link register save eliminated.
  33              	.LVL0:
  27:source\rte/lcd_type.c ****     
  28:source\rte/lcd_type.c **** 
  29:source\rte/lcd_type.c **** 	//Read data from the MCAL driver
  30:source\rte/lcd_type.c **** 
  31:source\rte/lcd_type.c **** 	//Scale it to the application type
  32:source\rte/lcd_type.c **** 
  33:source\rte/lcd_type.c **** 	return RC_SUCCESS;
  34:source\rte/lcd_type.c **** }
  34              		.loc 1 34 0
  35 0000 0020     		movs	r0, #0
  36              	.LVL1:
  37 0002 7047     		bx	lr
  38              		.cfi_endproc
  39              	.LFE114:
  40              		.size	LCD_driverIn, .-LCD_driverIn
  41              		.section	.text.LCD_driverOut,"ax",%progbits
  42              		.align	2
  43              		.global	LCD_driverOut
  44              		.thumb
  45              		.thumb_func
  46              		.type	LCD_driverOut, %function
  47              	LCD_driverOut:
  48              	.LFB115:
  35:source\rte/lcd_type.c **** 
  36:source\rte/lcd_type.c **** /**
  37:source\rte/lcd_type.c ****  * Default IN driver API - may be deleted if not required
  38:source\rte/lcd_type.c ****  */
  39:source\rte/lcd_type.c **** inline RC_t LCD_driverOut(const LCD_data_t  *const data)
  40:source\rte/lcd_type.c **** {
  49              		.loc 1 40 0
  50              		.cfi_startproc
  51              		@ args = 0, pretend = 0, frame = 104
  52              		@ frame_needed = 0, uses_anonymous_args = 0
  53              	.LVL2:
  54 0000 10B5     		push	{r4, lr}
  55              		.cfi_def_cfa_offset 8
  56              		.cfi_offset 4, -8
  57              		.cfi_offset 14, -4
  58 0002 9CB0     		sub	sp, sp, #112
  59              		.cfi_def_cfa_offset 120
  41:source\rte/lcd_type.c ****     char value[100];
  42:source\rte/lcd_type.c ****     char str[20];
  43:source\rte/lcd_type.c ****     uint8_t y;
  44:source\rte/lcd_type.c ****     //GetResource(mutex);
  45:source\rte/lcd_type.c ****     itoa(data->str , value, 10);
  60              		.loc 1 45 0
  61 0004 0A22     		movs	r2, #10
  62 0006 03A9     		add	r1, sp, #12
  63 0008 0078     		ldrb	r0, [r0]	@ zero_extendqisi2
  64              	.LVL3:
  65 000a FFF7FEFF 		bl	itoa
  66              	.LVL4:
  46:source\rte/lcd_type.c ****     y=data->str;
  47:source\rte/lcd_type.c ****     //sprintf(str, "y: %d", y);
  48:source\rte/lcd_type.c ****     //LOG_I(str,"");
ARM GAS  C:\Users\Reza\AppData\Local\Temp\ccoXJLjt.s 			page 3


  49:source\rte/lcd_type.c ****     //UG_FillScreen(C_KHAKI);
  50:source\rte/lcd_type.c ****     UG_FillFrame(12,38,100,60,C_KHAKI);
  67              		.loc 1 50 0
  68 000e 4EF63174 		movw	r4, #61233
  69 0012 0094     		str	r4, [sp]
  70              	.LVL5:
  71 0014 3C23     		movs	r3, #60
  72 0016 6422     		movs	r2, #100
  73 0018 2621     		movs	r1, #38
  74 001a 0C20     		movs	r0, #12
  75 001c FFF7FEFF 		bl	UG_FillFrame
  76              	.LVL6:
  51:source\rte/lcd_type.c ****     UG_FontSelect(&FONT_10X16);
  77              		.loc 1 51 0
  78 0020 0B48     		ldr	r0, .L4
  79 0022 FFF7FEFF 		bl	UG_FontSelect
  80              	.LVL7:
  52:source\rte/lcd_type.c ****     UG_SetBackcolor(C_KHAKI);
  81              		.loc 1 52 0
  82 0026 2046     		mov	r0, r4
  83 0028 FFF7FEFF 		bl	UG_SetBackcolor
  84              	.LVL8:
  53:source\rte/lcd_type.c ****     UG_SetForecolor(C_RED);
  85              		.loc 1 53 0
  86 002c 4FF47840 		mov	r0, #63488
  87 0030 FFF7FEFF 		bl	UG_SetForecolor
  88              	.LVL9:
  54:source\rte/lcd_type.c ****     
  55:source\rte/lcd_type.c ****     UG_PutString(1, 5 , "Recvd Data: ");
  89              		.loc 1 55 0
  90 0034 074A     		ldr	r2, .L4+4
  91 0036 0521     		movs	r1, #5
  92 0038 0120     		movs	r0, #1
  93 003a FFF7FEFF 		bl	UG_PutString
  94              	.LVL10:
  56:source\rte/lcd_type.c ****     
  57:source\rte/lcd_type.c ****     UG_PutString(15, 40,value);
  95              		.loc 1 57 0
  96 003e 03AA     		add	r2, sp, #12
  97 0040 2821     		movs	r1, #40
  98 0042 0F20     		movs	r0, #15
  99 0044 FFF7FEFF 		bl	UG_PutString
 100              	.LVL11:
  58:source\rte/lcd_type.c ****     //ReleaseResource(mutex);
  59:source\rte/lcd_type.c ****     //LED_Set(LED_YELLOW,LED_ON);
  60:source\rte/lcd_type.c **** 	return RC_SUCCESS;
  61:source\rte/lcd_type.c **** }
 101              		.loc 1 61 0
 102 0048 0020     		movs	r0, #0
 103 004a 1CB0     		add	sp, sp, #112
 104              		.cfi_def_cfa_offset 8
 105              		@ sp needed
 106 004c 10BD     		pop	{r4, pc}
 107              	.L5:
 108 004e 00BF     		.align	2
 109              	.L4:
 110 0050 00000000 		.word	FONT_10X16
ARM GAS  C:\Users\Reza\AppData\Local\Temp\ccoXJLjt.s 			page 4


 111 0054 00000000 		.word	.LC0
 112              		.cfi_endproc
 113              	.LFE115:
 114              		.size	LCD_driverOut, .-LCD_driverOut
 115              		.comm	gui7735,100,4
 116              		.section	.rodata.str1.4,"aMS",%progbits,1
 117              		.align	2
 118              	.LC0:
 119 0000 52656376 		.ascii	"Recvd Data: \000"
 119      64204461 
 119      74613A20 
 119      00
 120              		.text
 121              	.Letext0:
 122              		.file 2 "c:\\program files (x86)\\cypress\\psoc creator\\4.4\\psoc creator\\import\\gnu\\arm\\5.4.
 123              		.file 3 "c:\\program files (x86)\\cypress\\psoc creator\\4.4\\psoc creator\\import\\gnu\\arm\\5.4.
 124              		.file 4 "Generated_Source\\PSoC5/cytypes.h"
 125              		.file 5 "Generated_Source\\PSoC5/ErikaOS_1_common_ee_types.inc"
 126              		.file 6 "Generated_Source\\PSoC5/ErikaOS_1_cortex_mx_ee_cpu.inc"
 127              		.file 7 ".\\source\\bsw/global.h"
 128              		.file 8 ".\\source\\bsw\\LCD_Library/ugui_config.h"
 129              		.file 9 ".\\source\\bsw\\LCD_Library/ugui.h"
 130              		.file 10 "source\\rte\\lcd_type.h"
 131              		.file 11 "Generated_Source\\PSoC5/ErikaOS_1_ee_oo_intfunc.inc"
 132              		.file 12 "Generated_Source\\PSoC5/ErikaOS_1_cortex_mx_ee_context.inc"
 133              		.file 13 "Generated_Source\\PSoC5/ErikaOS_1_common_ee_primitives.inc"
 134              		.file 14 "Generated_Source\\PSoC5/core_cm3.h"
 135              		.file 15 ".\\source\\bsw\\LCD_Driver/ugui_st7735.h"