ARM GAS  C:\Users\Reza\AppData\Local\Temp\ccHE15tZ.s 			page 1


   1              		.syntax unified
   2              		.cpu cortex-m3
   3              		.fpu softvfp
   4              		.eabi_attribute 20, 1
   5              		.eabi_attribute 21, 1
   6              		.eabi_attribute 23, 3
   7              		.eabi_attribute 24, 1
   8              		.eabi_attribute 25, 1
   9              		.eabi_attribute 26, 1
  10              		.eabi_attribute 30, 1
  11              		.eabi_attribute 34, 1
  12              		.eabi_attribute 18, 4
  13              		.thumb
  14              		.syntax unified
  15              		.file	"RGB_PWM_red.c"
  16              		.text
  17              	.Ltext0:
  18              		.cfi_sections	.debug_frame
  19              		.section	.text.RGB_PWM_red_Enable,"ax",%progbits
  20              		.align	2
  21              		.global	RGB_PWM_red_Enable
  22              		.thumb
  23              		.thumb_func
  24              		.type	RGB_PWM_red_Enable, %function
  25              	RGB_PWM_red_Enable:
  26              	.LFB2:
  27              		.file 1 "Generated_Source\\PSoC5\\RGB_PWM_red.c"
   1:Generated_Source\PSoC5/RGB_PWM_red.c **** /*******************************************************************************
   2:Generated_Source\PSoC5/RGB_PWM_red.c **** * File Name: RGB_PWM_red.c
   3:Generated_Source\PSoC5/RGB_PWM_red.c **** * Version 3.30
   4:Generated_Source\PSoC5/RGB_PWM_red.c **** *
   5:Generated_Source\PSoC5/RGB_PWM_red.c **** * Description:
   6:Generated_Source\PSoC5/RGB_PWM_red.c **** *  The PWM User Module consist of an 8 or 16-bit counter with two 8 or 16-bit
   7:Generated_Source\PSoC5/RGB_PWM_red.c **** *  comparitors. Each instance of this user module is capable of generating
   8:Generated_Source\PSoC5/RGB_PWM_red.c **** *  two PWM outputs with the same period. The pulse width is selectable between
   9:Generated_Source\PSoC5/RGB_PWM_red.c **** *  1 and 255/65535. The period is selectable between 2 and 255/65536 clocks.
  10:Generated_Source\PSoC5/RGB_PWM_red.c **** *  The compare value output may be configured to be active when the present
  11:Generated_Source\PSoC5/RGB_PWM_red.c **** *  counter is less than or less than/equal to the compare value.
  12:Generated_Source\PSoC5/RGB_PWM_red.c **** *  A terminal count output is also provided. It generates a pulse one clock
  13:Generated_Source\PSoC5/RGB_PWM_red.c **** *  width wide when the counter is equal to zero.
  14:Generated_Source\PSoC5/RGB_PWM_red.c **** *
  15:Generated_Source\PSoC5/RGB_PWM_red.c **** * Note:
  16:Generated_Source\PSoC5/RGB_PWM_red.c **** *
  17:Generated_Source\PSoC5/RGB_PWM_red.c **** *******************************************************************************
  18:Generated_Source\PSoC5/RGB_PWM_red.c **** * Copyright 2008-2014, Cypress Semiconductor Corporation.  All rights reserved.
  19:Generated_Source\PSoC5/RGB_PWM_red.c **** * You may use this file only in accordance with the license, terms, conditions,
  20:Generated_Source\PSoC5/RGB_PWM_red.c **** * disclaimers, and limitations in the end user license agreement accompanying
  21:Generated_Source\PSoC5/RGB_PWM_red.c **** * the software package with which this file was provided.
  22:Generated_Source\PSoC5/RGB_PWM_red.c **** ********************************************************************************/
  23:Generated_Source\PSoC5/RGB_PWM_red.c **** 
  24:Generated_Source\PSoC5/RGB_PWM_red.c **** #include "RGB_PWM_red.h"
  25:Generated_Source\PSoC5/RGB_PWM_red.c **** 
  26:Generated_Source\PSoC5/RGB_PWM_red.c **** /* Error message for removed <resource> through optimization */
  27:Generated_Source\PSoC5/RGB_PWM_red.c **** #ifdef RGB_PWM_red_PWMUDB_genblk1_ctrlreg__REMOVED
  28:Generated_Source\PSoC5/RGB_PWM_red.c ****     #error PWM_v3_30 detected with a constant 0 for the enable or \
  29:Generated_Source\PSoC5/RGB_PWM_red.c ****          constant 1 for reset. This will prevent the component from operating.
  30:Generated_Source\PSoC5/RGB_PWM_red.c **** #endif /* RGB_PWM_red_PWMUDB_genblk1_ctrlreg__REMOVED */
ARM GAS  C:\Users\Reza\AppData\Local\Temp\ccHE15tZ.s 			page 2


  31:Generated_Source\PSoC5/RGB_PWM_red.c **** 
  32:Generated_Source\PSoC5/RGB_PWM_red.c **** uint8 RGB_PWM_red_initVar = 0u;
  33:Generated_Source\PSoC5/RGB_PWM_red.c **** 
  34:Generated_Source\PSoC5/RGB_PWM_red.c **** 
  35:Generated_Source\PSoC5/RGB_PWM_red.c **** /*******************************************************************************
  36:Generated_Source\PSoC5/RGB_PWM_red.c **** * Function Name: RGB_PWM_red_Start
  37:Generated_Source\PSoC5/RGB_PWM_red.c **** ********************************************************************************
  38:Generated_Source\PSoC5/RGB_PWM_red.c **** *
  39:Generated_Source\PSoC5/RGB_PWM_red.c **** * Summary:
  40:Generated_Source\PSoC5/RGB_PWM_red.c **** *  The start function initializes the pwm with the default values, the
  41:Generated_Source\PSoC5/RGB_PWM_red.c **** *  enables the counter to begin counting.  It does not enable interrupts,
  42:Generated_Source\PSoC5/RGB_PWM_red.c **** *  the EnableInt command should be called if interrupt generation is required.
  43:Generated_Source\PSoC5/RGB_PWM_red.c **** *
  44:Generated_Source\PSoC5/RGB_PWM_red.c **** * Parameters:
  45:Generated_Source\PSoC5/RGB_PWM_red.c **** *  None
  46:Generated_Source\PSoC5/RGB_PWM_red.c **** *
  47:Generated_Source\PSoC5/RGB_PWM_red.c **** * Return:
  48:Generated_Source\PSoC5/RGB_PWM_red.c **** *  None
  49:Generated_Source\PSoC5/RGB_PWM_red.c **** *
  50:Generated_Source\PSoC5/RGB_PWM_red.c **** * Global variables:
  51:Generated_Source\PSoC5/RGB_PWM_red.c **** *  RGB_PWM_red_initVar: Is modified when this function is called for the
  52:Generated_Source\PSoC5/RGB_PWM_red.c **** *   first time. Is used to ensure that initialization happens only once.
  53:Generated_Source\PSoC5/RGB_PWM_red.c **** *
  54:Generated_Source\PSoC5/RGB_PWM_red.c **** *******************************************************************************/
  55:Generated_Source\PSoC5/RGB_PWM_red.c **** void RGB_PWM_red_Start(void) 
  56:Generated_Source\PSoC5/RGB_PWM_red.c **** {
  57:Generated_Source\PSoC5/RGB_PWM_red.c ****     /* If not Initialized then initialize all required hardware and software */
  58:Generated_Source\PSoC5/RGB_PWM_red.c ****     if(RGB_PWM_red_initVar == 0u)
  59:Generated_Source\PSoC5/RGB_PWM_red.c ****     {
  60:Generated_Source\PSoC5/RGB_PWM_red.c ****         RGB_PWM_red_Init();
  61:Generated_Source\PSoC5/RGB_PWM_red.c ****         RGB_PWM_red_initVar = 1u;
  62:Generated_Source\PSoC5/RGB_PWM_red.c ****     }
  63:Generated_Source\PSoC5/RGB_PWM_red.c ****     RGB_PWM_red_Enable();
  64:Generated_Source\PSoC5/RGB_PWM_red.c **** 
  65:Generated_Source\PSoC5/RGB_PWM_red.c **** }
  66:Generated_Source\PSoC5/RGB_PWM_red.c **** 
  67:Generated_Source\PSoC5/RGB_PWM_red.c **** 
  68:Generated_Source\PSoC5/RGB_PWM_red.c **** /*******************************************************************************
  69:Generated_Source\PSoC5/RGB_PWM_red.c **** * Function Name: RGB_PWM_red_Init
  70:Generated_Source\PSoC5/RGB_PWM_red.c **** ********************************************************************************
  71:Generated_Source\PSoC5/RGB_PWM_red.c **** *
  72:Generated_Source\PSoC5/RGB_PWM_red.c **** * Summary:
  73:Generated_Source\PSoC5/RGB_PWM_red.c **** *  Initialize component's parameters to the parameters set by user in the
  74:Generated_Source\PSoC5/RGB_PWM_red.c **** *  customizer of the component placed onto schematic. Usually called in
  75:Generated_Source\PSoC5/RGB_PWM_red.c **** *  RGB_PWM_red_Start().
  76:Generated_Source\PSoC5/RGB_PWM_red.c **** *
  77:Generated_Source\PSoC5/RGB_PWM_red.c **** * Parameters:
  78:Generated_Source\PSoC5/RGB_PWM_red.c **** *  None
  79:Generated_Source\PSoC5/RGB_PWM_red.c **** *
  80:Generated_Source\PSoC5/RGB_PWM_red.c **** * Return:
  81:Generated_Source\PSoC5/RGB_PWM_red.c **** *  None
  82:Generated_Source\PSoC5/RGB_PWM_red.c **** *
  83:Generated_Source\PSoC5/RGB_PWM_red.c **** *******************************************************************************/
  84:Generated_Source\PSoC5/RGB_PWM_red.c **** void RGB_PWM_red_Init(void) 
  85:Generated_Source\PSoC5/RGB_PWM_red.c **** {
  86:Generated_Source\PSoC5/RGB_PWM_red.c ****     #if (RGB_PWM_red_UsingFixedFunction || RGB_PWM_red_UseControl)
  87:Generated_Source\PSoC5/RGB_PWM_red.c ****         uint8 ctrl;
ARM GAS  C:\Users\Reza\AppData\Local\Temp\ccHE15tZ.s 			page 3


  88:Generated_Source\PSoC5/RGB_PWM_red.c ****     #endif /* (RGB_PWM_red_UsingFixedFunction || RGB_PWM_red_UseControl) */
  89:Generated_Source\PSoC5/RGB_PWM_red.c **** 
  90:Generated_Source\PSoC5/RGB_PWM_red.c ****     #if(!RGB_PWM_red_UsingFixedFunction)
  91:Generated_Source\PSoC5/RGB_PWM_red.c ****         #if(RGB_PWM_red_UseStatus)
  92:Generated_Source\PSoC5/RGB_PWM_red.c ****             /* Interrupt State Backup for Critical Region*/
  93:Generated_Source\PSoC5/RGB_PWM_red.c ****             uint8 RGB_PWM_red_interruptState;
  94:Generated_Source\PSoC5/RGB_PWM_red.c ****         #endif /* (RGB_PWM_red_UseStatus) */
  95:Generated_Source\PSoC5/RGB_PWM_red.c ****     #endif /* (!RGB_PWM_red_UsingFixedFunction) */
  96:Generated_Source\PSoC5/RGB_PWM_red.c **** 
  97:Generated_Source\PSoC5/RGB_PWM_red.c ****     #if (RGB_PWM_red_UsingFixedFunction)
  98:Generated_Source\PSoC5/RGB_PWM_red.c ****         /* You are allowed to write the compare value (FF only) */
  99:Generated_Source\PSoC5/RGB_PWM_red.c ****         RGB_PWM_red_CONTROL |= RGB_PWM_red_CFG0_MODE;
 100:Generated_Source\PSoC5/RGB_PWM_red.c ****         #if (RGB_PWM_red_DeadBand2_4)
 101:Generated_Source\PSoC5/RGB_PWM_red.c ****             RGB_PWM_red_CONTROL |= RGB_PWM_red_CFG0_DB;
 102:Generated_Source\PSoC5/RGB_PWM_red.c ****         #endif /* (RGB_PWM_red_DeadBand2_4) */
 103:Generated_Source\PSoC5/RGB_PWM_red.c **** 
 104:Generated_Source\PSoC5/RGB_PWM_red.c ****         ctrl = RGB_PWM_red_CONTROL3 & ((uint8 )(~RGB_PWM_red_CTRL_CMPMODE1_MASK));
 105:Generated_Source\PSoC5/RGB_PWM_red.c ****         RGB_PWM_red_CONTROL3 = ctrl | RGB_PWM_red_DEFAULT_COMPARE1_MODE;
 106:Generated_Source\PSoC5/RGB_PWM_red.c **** 
 107:Generated_Source\PSoC5/RGB_PWM_red.c ****          /* Clear and Set SYNCTC and SYNCCMP bits of RT1 register */
 108:Generated_Source\PSoC5/RGB_PWM_red.c ****         RGB_PWM_red_RT1 &= ((uint8)(~RGB_PWM_red_RT1_MASK));
 109:Generated_Source\PSoC5/RGB_PWM_red.c ****         RGB_PWM_red_RT1 |= RGB_PWM_red_SYNC;
 110:Generated_Source\PSoC5/RGB_PWM_red.c **** 
 111:Generated_Source\PSoC5/RGB_PWM_red.c ****         /*Enable DSI Sync all all inputs of the PWM*/
 112:Generated_Source\PSoC5/RGB_PWM_red.c ****         RGB_PWM_red_RT1 &= ((uint8)(~RGB_PWM_red_SYNCDSI_MASK));
 113:Generated_Source\PSoC5/RGB_PWM_red.c ****         RGB_PWM_red_RT1 |= RGB_PWM_red_SYNCDSI_EN;
 114:Generated_Source\PSoC5/RGB_PWM_red.c **** 
 115:Generated_Source\PSoC5/RGB_PWM_red.c ****     #elif (RGB_PWM_red_UseControl)
 116:Generated_Source\PSoC5/RGB_PWM_red.c ****         /* Set the default compare mode defined in the parameter */
 117:Generated_Source\PSoC5/RGB_PWM_red.c ****         ctrl = RGB_PWM_red_CONTROL & ((uint8)(~RGB_PWM_red_CTRL_CMPMODE2_MASK)) &
 118:Generated_Source\PSoC5/RGB_PWM_red.c ****                 ((uint8)(~RGB_PWM_red_CTRL_CMPMODE1_MASK));
 119:Generated_Source\PSoC5/RGB_PWM_red.c ****         RGB_PWM_red_CONTROL = ctrl | RGB_PWM_red_DEFAULT_COMPARE2_MODE |
 120:Generated_Source\PSoC5/RGB_PWM_red.c ****                                    RGB_PWM_red_DEFAULT_COMPARE1_MODE;
 121:Generated_Source\PSoC5/RGB_PWM_red.c ****     #endif /* (RGB_PWM_red_UsingFixedFunction) */
 122:Generated_Source\PSoC5/RGB_PWM_red.c **** 
 123:Generated_Source\PSoC5/RGB_PWM_red.c ****     #if (!RGB_PWM_red_UsingFixedFunction)
 124:Generated_Source\PSoC5/RGB_PWM_red.c ****         #if (RGB_PWM_red_Resolution == 8)
 125:Generated_Source\PSoC5/RGB_PWM_red.c ****             /* Set FIFO 0 to 1 byte register for period*/
 126:Generated_Source\PSoC5/RGB_PWM_red.c ****             RGB_PWM_red_AUX_CONTROLDP0 |= (RGB_PWM_red_AUX_CTRL_FIFO0_CLR);
 127:Generated_Source\PSoC5/RGB_PWM_red.c ****         #else /* (RGB_PWM_red_Resolution == 16)*/
 128:Generated_Source\PSoC5/RGB_PWM_red.c ****             /* Set FIFO 0 to 1 byte register for period */
 129:Generated_Source\PSoC5/RGB_PWM_red.c ****             RGB_PWM_red_AUX_CONTROLDP0 |= (RGB_PWM_red_AUX_CTRL_FIFO0_CLR);
 130:Generated_Source\PSoC5/RGB_PWM_red.c ****             RGB_PWM_red_AUX_CONTROLDP1 |= (RGB_PWM_red_AUX_CTRL_FIFO0_CLR);
 131:Generated_Source\PSoC5/RGB_PWM_red.c ****         #endif /* (RGB_PWM_red_Resolution == 8) */
 132:Generated_Source\PSoC5/RGB_PWM_red.c **** 
 133:Generated_Source\PSoC5/RGB_PWM_red.c ****         RGB_PWM_red_WriteCounter(RGB_PWM_red_INIT_PERIOD_VALUE);
 134:Generated_Source\PSoC5/RGB_PWM_red.c ****     #endif /* (!RGB_PWM_red_UsingFixedFunction) */
 135:Generated_Source\PSoC5/RGB_PWM_red.c **** 
 136:Generated_Source\PSoC5/RGB_PWM_red.c ****     RGB_PWM_red_WritePeriod(RGB_PWM_red_INIT_PERIOD_VALUE);
 137:Generated_Source\PSoC5/RGB_PWM_red.c **** 
 138:Generated_Source\PSoC5/RGB_PWM_red.c ****         #if (RGB_PWM_red_UseOneCompareMode)
 139:Generated_Source\PSoC5/RGB_PWM_red.c ****             RGB_PWM_red_WriteCompare(RGB_PWM_red_INIT_COMPARE_VALUE1);
 140:Generated_Source\PSoC5/RGB_PWM_red.c ****         #else
 141:Generated_Source\PSoC5/RGB_PWM_red.c ****             RGB_PWM_red_WriteCompare1(RGB_PWM_red_INIT_COMPARE_VALUE1);
 142:Generated_Source\PSoC5/RGB_PWM_red.c ****             RGB_PWM_red_WriteCompare2(RGB_PWM_red_INIT_COMPARE_VALUE2);
 143:Generated_Source\PSoC5/RGB_PWM_red.c ****         #endif /* (RGB_PWM_red_UseOneCompareMode) */
 144:Generated_Source\PSoC5/RGB_PWM_red.c **** 
ARM GAS  C:\Users\Reza\AppData\Local\Temp\ccHE15tZ.s 			page 4


 145:Generated_Source\PSoC5/RGB_PWM_red.c ****         #if (RGB_PWM_red_KillModeMinTime)
 146:Generated_Source\PSoC5/RGB_PWM_red.c ****             RGB_PWM_red_WriteKillTime(RGB_PWM_red_MinimumKillTime);
 147:Generated_Source\PSoC5/RGB_PWM_red.c ****         #endif /* (RGB_PWM_red_KillModeMinTime) */
 148:Generated_Source\PSoC5/RGB_PWM_red.c **** 
 149:Generated_Source\PSoC5/RGB_PWM_red.c ****         #if (RGB_PWM_red_DeadBandUsed)
 150:Generated_Source\PSoC5/RGB_PWM_red.c ****             RGB_PWM_red_WriteDeadTime(RGB_PWM_red_INIT_DEAD_TIME);
 151:Generated_Source\PSoC5/RGB_PWM_red.c ****         #endif /* (RGB_PWM_red_DeadBandUsed) */
 152:Generated_Source\PSoC5/RGB_PWM_red.c **** 
 153:Generated_Source\PSoC5/RGB_PWM_red.c ****     #if (RGB_PWM_red_UseStatus || RGB_PWM_red_UsingFixedFunction)
 154:Generated_Source\PSoC5/RGB_PWM_red.c ****         RGB_PWM_red_SetInterruptMode(RGB_PWM_red_INIT_INTERRUPTS_MODE);
 155:Generated_Source\PSoC5/RGB_PWM_red.c ****     #endif /* (RGB_PWM_red_UseStatus || RGB_PWM_red_UsingFixedFunction) */
 156:Generated_Source\PSoC5/RGB_PWM_red.c **** 
 157:Generated_Source\PSoC5/RGB_PWM_red.c ****     #if (RGB_PWM_red_UsingFixedFunction)
 158:Generated_Source\PSoC5/RGB_PWM_red.c ****         /* Globally Enable the Fixed Function Block chosen */
 159:Generated_Source\PSoC5/RGB_PWM_red.c ****         RGB_PWM_red_GLOBAL_ENABLE |= RGB_PWM_red_BLOCK_EN_MASK;
 160:Generated_Source\PSoC5/RGB_PWM_red.c ****         /* Set the Interrupt source to come from the status register */
 161:Generated_Source\PSoC5/RGB_PWM_red.c ****         RGB_PWM_red_CONTROL2 |= RGB_PWM_red_CTRL2_IRQ_SEL;
 162:Generated_Source\PSoC5/RGB_PWM_red.c ****     #else
 163:Generated_Source\PSoC5/RGB_PWM_red.c ****         #if(RGB_PWM_red_UseStatus)
 164:Generated_Source\PSoC5/RGB_PWM_red.c **** 
 165:Generated_Source\PSoC5/RGB_PWM_red.c ****             /* CyEnterCriticalRegion and CyExitCriticalRegion are used to mark following region cri
 166:Generated_Source\PSoC5/RGB_PWM_red.c ****             /* Enter Critical Region*/
 167:Generated_Source\PSoC5/RGB_PWM_red.c ****             RGB_PWM_red_interruptState = CyEnterCriticalSection();
 168:Generated_Source\PSoC5/RGB_PWM_red.c ****             /* Use the interrupt output of the status register for IRQ output */
 169:Generated_Source\PSoC5/RGB_PWM_red.c ****             RGB_PWM_red_STATUS_AUX_CTRL |= RGB_PWM_red_STATUS_ACTL_INT_EN_MASK;
 170:Generated_Source\PSoC5/RGB_PWM_red.c **** 
 171:Generated_Source\PSoC5/RGB_PWM_red.c ****              /* Exit Critical Region*/
 172:Generated_Source\PSoC5/RGB_PWM_red.c ****             CyExitCriticalSection(RGB_PWM_red_interruptState);
 173:Generated_Source\PSoC5/RGB_PWM_red.c **** 
 174:Generated_Source\PSoC5/RGB_PWM_red.c ****             /* Clear the FIFO to enable the RGB_PWM_red_STATUS_FIFOFULL
 175:Generated_Source\PSoC5/RGB_PWM_red.c ****                    bit to be set on FIFO full. */
 176:Generated_Source\PSoC5/RGB_PWM_red.c ****             RGB_PWM_red_ClearFIFO();
 177:Generated_Source\PSoC5/RGB_PWM_red.c ****         #endif /* (RGB_PWM_red_UseStatus) */
 178:Generated_Source\PSoC5/RGB_PWM_red.c ****     #endif /* (RGB_PWM_red_UsingFixedFunction) */
 179:Generated_Source\PSoC5/RGB_PWM_red.c **** }
 180:Generated_Source\PSoC5/RGB_PWM_red.c **** 
 181:Generated_Source\PSoC5/RGB_PWM_red.c **** 
 182:Generated_Source\PSoC5/RGB_PWM_red.c **** /*******************************************************************************
 183:Generated_Source\PSoC5/RGB_PWM_red.c **** * Function Name: RGB_PWM_red_Enable
 184:Generated_Source\PSoC5/RGB_PWM_red.c **** ********************************************************************************
 185:Generated_Source\PSoC5/RGB_PWM_red.c **** *
 186:Generated_Source\PSoC5/RGB_PWM_red.c **** * Summary:
 187:Generated_Source\PSoC5/RGB_PWM_red.c **** *  Enables the PWM block operation
 188:Generated_Source\PSoC5/RGB_PWM_red.c **** *
 189:Generated_Source\PSoC5/RGB_PWM_red.c **** * Parameters:
 190:Generated_Source\PSoC5/RGB_PWM_red.c **** *  None
 191:Generated_Source\PSoC5/RGB_PWM_red.c **** *
 192:Generated_Source\PSoC5/RGB_PWM_red.c **** * Return:
 193:Generated_Source\PSoC5/RGB_PWM_red.c **** *  None
 194:Generated_Source\PSoC5/RGB_PWM_red.c **** *
 195:Generated_Source\PSoC5/RGB_PWM_red.c **** * Side Effects:
 196:Generated_Source\PSoC5/RGB_PWM_red.c **** *  This works only if software enable mode is chosen
 197:Generated_Source\PSoC5/RGB_PWM_red.c **** *
 198:Generated_Source\PSoC5/RGB_PWM_red.c **** *******************************************************************************/
 199:Generated_Source\PSoC5/RGB_PWM_red.c **** void RGB_PWM_red_Enable(void) 
 200:Generated_Source\PSoC5/RGB_PWM_red.c **** {
  28              		.loc 1 200 0
ARM GAS  C:\Users\Reza\AppData\Local\Temp\ccHE15tZ.s 			page 5


  29              		.cfi_startproc
  30              		@ args = 0, pretend = 0, frame = 0
  31              		@ frame_needed = 0, uses_anonymous_args = 0
  32              		@ link register save eliminated.
 201:Generated_Source\PSoC5/RGB_PWM_red.c ****     /* Globally Enable the Fixed Function Block chosen */
 202:Generated_Source\PSoC5/RGB_PWM_red.c ****     #if (RGB_PWM_red_UsingFixedFunction)
 203:Generated_Source\PSoC5/RGB_PWM_red.c ****         RGB_PWM_red_GLOBAL_ENABLE |= RGB_PWM_red_BLOCK_EN_MASK;
 204:Generated_Source\PSoC5/RGB_PWM_red.c ****         RGB_PWM_red_GLOBAL_STBY_ENABLE |= RGB_PWM_red_BLOCK_STBY_EN_MASK;
 205:Generated_Source\PSoC5/RGB_PWM_red.c ****     #endif /* (RGB_PWM_red_UsingFixedFunction) */
 206:Generated_Source\PSoC5/RGB_PWM_red.c **** 
 207:Generated_Source\PSoC5/RGB_PWM_red.c ****     /* Enable the PWM from the control register  */
 208:Generated_Source\PSoC5/RGB_PWM_red.c ****     #if (RGB_PWM_red_UseControl || RGB_PWM_red_UsingFixedFunction)
 209:Generated_Source\PSoC5/RGB_PWM_red.c ****         RGB_PWM_red_CONTROL |= RGB_PWM_red_CTRL_ENABLE;
  33              		.loc 1 209 0
  34 0000 024A     		ldr	r2, .L2
  35 0002 1378     		ldrb	r3, [r2]	@ zero_extendqisi2
  36 0004 43F08003 		orr	r3, r3, #128
  37 0008 1370     		strb	r3, [r2]
  38 000a 7047     		bx	lr
  39              	.L3:
  40              		.align	2
  41              	.L2:
  42 000c 7E640040 		.word	1073767550
  43              		.cfi_endproc
  44              	.LFE2:
  45              		.size	RGB_PWM_red_Enable, .-RGB_PWM_red_Enable
  46              		.section	.text.RGB_PWM_red_Stop,"ax",%progbits
  47              		.align	2
  48              		.global	RGB_PWM_red_Stop
  49              		.thumb
  50              		.thumb_func
  51              		.type	RGB_PWM_red_Stop, %function
  52              	RGB_PWM_red_Stop:
  53              	.LFB3:
 210:Generated_Source\PSoC5/RGB_PWM_red.c ****     #endif /* (RGB_PWM_red_UseControl || RGB_PWM_red_UsingFixedFunction) */
 211:Generated_Source\PSoC5/RGB_PWM_red.c **** }
 212:Generated_Source\PSoC5/RGB_PWM_red.c **** 
 213:Generated_Source\PSoC5/RGB_PWM_red.c **** 
 214:Generated_Source\PSoC5/RGB_PWM_red.c **** /*******************************************************************************
 215:Generated_Source\PSoC5/RGB_PWM_red.c **** * Function Name: RGB_PWM_red_Stop
 216:Generated_Source\PSoC5/RGB_PWM_red.c **** ********************************************************************************
 217:Generated_Source\PSoC5/RGB_PWM_red.c **** *
 218:Generated_Source\PSoC5/RGB_PWM_red.c **** * Summary:
 219:Generated_Source\PSoC5/RGB_PWM_red.c **** *  The stop function halts the PWM, but does not change any modes or disable
 220:Generated_Source\PSoC5/RGB_PWM_red.c **** *  interrupts.
 221:Generated_Source\PSoC5/RGB_PWM_red.c **** *
 222:Generated_Source\PSoC5/RGB_PWM_red.c **** * Parameters:
 223:Generated_Source\PSoC5/RGB_PWM_red.c **** *  None
 224:Generated_Source\PSoC5/RGB_PWM_red.c **** *
 225:Generated_Source\PSoC5/RGB_PWM_red.c **** * Return:
 226:Generated_Source\PSoC5/RGB_PWM_red.c **** *  None
 227:Generated_Source\PSoC5/RGB_PWM_red.c **** *
 228:Generated_Source\PSoC5/RGB_PWM_red.c **** * Side Effects:
 229:Generated_Source\PSoC5/RGB_PWM_red.c **** *  If the Enable mode is set to Hardware only then this function
 230:Generated_Source\PSoC5/RGB_PWM_red.c **** *  has no effect on the operation of the PWM
 231:Generated_Source\PSoC5/RGB_PWM_red.c **** *
 232:Generated_Source\PSoC5/RGB_PWM_red.c **** *******************************************************************************/
ARM GAS  C:\Users\Reza\AppData\Local\Temp\ccHE15tZ.s 			page 6


 233:Generated_Source\PSoC5/RGB_PWM_red.c **** void RGB_PWM_red_Stop(void) 
 234:Generated_Source\PSoC5/RGB_PWM_red.c **** {
  54              		.loc 1 234 0
  55              		.cfi_startproc
  56              		@ args = 0, pretend = 0, frame = 0
  57              		@ frame_needed = 0, uses_anonymous_args = 0
  58              		@ link register save eliminated.
 235:Generated_Source\PSoC5/RGB_PWM_red.c ****     #if (RGB_PWM_red_UseControl || RGB_PWM_red_UsingFixedFunction)
 236:Generated_Source\PSoC5/RGB_PWM_red.c ****         RGB_PWM_red_CONTROL &= ((uint8)(~RGB_PWM_red_CTRL_ENABLE));
  59              		.loc 1 236 0
  60 0000 024A     		ldr	r2, .L5
  61 0002 1378     		ldrb	r3, [r2]	@ zero_extendqisi2
  62 0004 03F07F03 		and	r3, r3, #127
  63 0008 1370     		strb	r3, [r2]
  64 000a 7047     		bx	lr
  65              	.L6:
  66              		.align	2
  67              	.L5:
  68 000c 7E640040 		.word	1073767550
  69              		.cfi_endproc
  70              	.LFE3:
  71              		.size	RGB_PWM_red_Stop, .-RGB_PWM_red_Stop
  72              		.section	.text.RGB_PWM_red_WriteCounter,"ax",%progbits
  73              		.align	2
  74              		.global	RGB_PWM_red_WriteCounter
  75              		.thumb
  76              		.thumb_func
  77              		.type	RGB_PWM_red_WriteCounter, %function
  78              	RGB_PWM_red_WriteCounter:
  79              	.LFB4:
 237:Generated_Source\PSoC5/RGB_PWM_red.c ****     #endif /* (RGB_PWM_red_UseControl || RGB_PWM_red_UsingFixedFunction) */
 238:Generated_Source\PSoC5/RGB_PWM_red.c **** 
 239:Generated_Source\PSoC5/RGB_PWM_red.c ****     /* Globally disable the Fixed Function Block chosen */
 240:Generated_Source\PSoC5/RGB_PWM_red.c ****     #if (RGB_PWM_red_UsingFixedFunction)
 241:Generated_Source\PSoC5/RGB_PWM_red.c ****         RGB_PWM_red_GLOBAL_ENABLE &= ((uint8)(~RGB_PWM_red_BLOCK_EN_MASK));
 242:Generated_Source\PSoC5/RGB_PWM_red.c ****         RGB_PWM_red_GLOBAL_STBY_ENABLE &= ((uint8)(~RGB_PWM_red_BLOCK_STBY_EN_MASK));
 243:Generated_Source\PSoC5/RGB_PWM_red.c ****     #endif /* (RGB_PWM_red_UsingFixedFunction) */
 244:Generated_Source\PSoC5/RGB_PWM_red.c **** }
 245:Generated_Source\PSoC5/RGB_PWM_red.c **** 
 246:Generated_Source\PSoC5/RGB_PWM_red.c **** #if (RGB_PWM_red_UseOneCompareMode)
 247:Generated_Source\PSoC5/RGB_PWM_red.c ****     #if (RGB_PWM_red_CompareMode1SW)
 248:Generated_Source\PSoC5/RGB_PWM_red.c **** 
 249:Generated_Source\PSoC5/RGB_PWM_red.c **** 
 250:Generated_Source\PSoC5/RGB_PWM_red.c ****         /*******************************************************************************
 251:Generated_Source\PSoC5/RGB_PWM_red.c ****         * Function Name: RGB_PWM_red_SetCompareMode
 252:Generated_Source\PSoC5/RGB_PWM_red.c ****         ********************************************************************************
 253:Generated_Source\PSoC5/RGB_PWM_red.c ****         *
 254:Generated_Source\PSoC5/RGB_PWM_red.c ****         * Summary:
 255:Generated_Source\PSoC5/RGB_PWM_red.c ****         *  This function writes the Compare Mode for the pwm output when in Dither mode,
 256:Generated_Source\PSoC5/RGB_PWM_red.c ****         *  Center Align Mode or One Output Mode.
 257:Generated_Source\PSoC5/RGB_PWM_red.c ****         *
 258:Generated_Source\PSoC5/RGB_PWM_red.c ****         * Parameters:
 259:Generated_Source\PSoC5/RGB_PWM_red.c ****         *  comparemode:  The new compare mode for the PWM output. Use the compare types
 260:Generated_Source\PSoC5/RGB_PWM_red.c ****         *                defined in the H file as input arguments.
 261:Generated_Source\PSoC5/RGB_PWM_red.c ****         *
 262:Generated_Source\PSoC5/RGB_PWM_red.c ****         * Return:
 263:Generated_Source\PSoC5/RGB_PWM_red.c ****         *  None
ARM GAS  C:\Users\Reza\AppData\Local\Temp\ccHE15tZ.s 			page 7


 264:Generated_Source\PSoC5/RGB_PWM_red.c ****         *
 265:Generated_Source\PSoC5/RGB_PWM_red.c ****         *******************************************************************************/
 266:Generated_Source\PSoC5/RGB_PWM_red.c ****         void RGB_PWM_red_SetCompareMode(uint8 comparemode) 
 267:Generated_Source\PSoC5/RGB_PWM_red.c ****         {
 268:Generated_Source\PSoC5/RGB_PWM_red.c ****             #if(RGB_PWM_red_UsingFixedFunction)
 269:Generated_Source\PSoC5/RGB_PWM_red.c **** 
 270:Generated_Source\PSoC5/RGB_PWM_red.c ****                 #if(0 != RGB_PWM_red_CTRL_CMPMODE1_SHIFT)
 271:Generated_Source\PSoC5/RGB_PWM_red.c ****                     uint8 comparemodemasked = ((uint8)((uint8)comparemode << RGB_PWM_red_CTRL_CMPMO
 272:Generated_Source\PSoC5/RGB_PWM_red.c ****                 #else
 273:Generated_Source\PSoC5/RGB_PWM_red.c ****                     uint8 comparemodemasked = comparemode;
 274:Generated_Source\PSoC5/RGB_PWM_red.c ****                 #endif /* (0 != RGB_PWM_red_CTRL_CMPMODE1_SHIFT) */
 275:Generated_Source\PSoC5/RGB_PWM_red.c **** 
 276:Generated_Source\PSoC5/RGB_PWM_red.c ****                 RGB_PWM_red_CONTROL3 &= ((uint8)(~RGB_PWM_red_CTRL_CMPMODE1_MASK)); /*Clear Existin
 277:Generated_Source\PSoC5/RGB_PWM_red.c ****                 RGB_PWM_red_CONTROL3 |= comparemodemasked;
 278:Generated_Source\PSoC5/RGB_PWM_red.c **** 
 279:Generated_Source\PSoC5/RGB_PWM_red.c ****             #elif (RGB_PWM_red_UseControl)
 280:Generated_Source\PSoC5/RGB_PWM_red.c **** 
 281:Generated_Source\PSoC5/RGB_PWM_red.c ****                 #if(0 != RGB_PWM_red_CTRL_CMPMODE1_SHIFT)
 282:Generated_Source\PSoC5/RGB_PWM_red.c ****                     uint8 comparemode1masked = ((uint8)((uint8)comparemode << RGB_PWM_red_CTRL_CMPM
 283:Generated_Source\PSoC5/RGB_PWM_red.c ****                                                 RGB_PWM_red_CTRL_CMPMODE1_MASK;
 284:Generated_Source\PSoC5/RGB_PWM_red.c ****                 #else
 285:Generated_Source\PSoC5/RGB_PWM_red.c ****                     uint8 comparemode1masked = comparemode & RGB_PWM_red_CTRL_CMPMODE1_MASK;
 286:Generated_Source\PSoC5/RGB_PWM_red.c ****                 #endif /* (0 != RGB_PWM_red_CTRL_CMPMODE1_SHIFT) */
 287:Generated_Source\PSoC5/RGB_PWM_red.c **** 
 288:Generated_Source\PSoC5/RGB_PWM_red.c ****                 #if(0 != RGB_PWM_red_CTRL_CMPMODE2_SHIFT)
 289:Generated_Source\PSoC5/RGB_PWM_red.c ****                     uint8 comparemode2masked = ((uint8)((uint8)comparemode << RGB_PWM_red_CTRL_CMPM
 290:Generated_Source\PSoC5/RGB_PWM_red.c ****                                                RGB_PWM_red_CTRL_CMPMODE2_MASK;
 291:Generated_Source\PSoC5/RGB_PWM_red.c ****                 #else
 292:Generated_Source\PSoC5/RGB_PWM_red.c ****                     uint8 comparemode2masked = comparemode & RGB_PWM_red_CTRL_CMPMODE2_MASK;
 293:Generated_Source\PSoC5/RGB_PWM_red.c ****                 #endif /* (0 != RGB_PWM_red_CTRL_CMPMODE2_SHIFT) */
 294:Generated_Source\PSoC5/RGB_PWM_red.c **** 
 295:Generated_Source\PSoC5/RGB_PWM_red.c ****                 /*Clear existing mode */
 296:Generated_Source\PSoC5/RGB_PWM_red.c ****                 RGB_PWM_red_CONTROL &= ((uint8)(~(RGB_PWM_red_CTRL_CMPMODE1_MASK |
 297:Generated_Source\PSoC5/RGB_PWM_red.c ****                                             RGB_PWM_red_CTRL_CMPMODE2_MASK)));
 298:Generated_Source\PSoC5/RGB_PWM_red.c ****                 RGB_PWM_red_CONTROL |= (comparemode1masked | comparemode2masked);
 299:Generated_Source\PSoC5/RGB_PWM_red.c **** 
 300:Generated_Source\PSoC5/RGB_PWM_red.c ****             #else
 301:Generated_Source\PSoC5/RGB_PWM_red.c ****                 uint8 temp = comparemode;
 302:Generated_Source\PSoC5/RGB_PWM_red.c ****             #endif /* (RGB_PWM_red_UsingFixedFunction) */
 303:Generated_Source\PSoC5/RGB_PWM_red.c ****         }
 304:Generated_Source\PSoC5/RGB_PWM_red.c ****     #endif /* RGB_PWM_red_CompareMode1SW */
 305:Generated_Source\PSoC5/RGB_PWM_red.c **** 
 306:Generated_Source\PSoC5/RGB_PWM_red.c **** #else /* UseOneCompareMode */
 307:Generated_Source\PSoC5/RGB_PWM_red.c **** 
 308:Generated_Source\PSoC5/RGB_PWM_red.c ****     #if (RGB_PWM_red_CompareMode1SW)
 309:Generated_Source\PSoC5/RGB_PWM_red.c **** 
 310:Generated_Source\PSoC5/RGB_PWM_red.c **** 
 311:Generated_Source\PSoC5/RGB_PWM_red.c ****         /*******************************************************************************
 312:Generated_Source\PSoC5/RGB_PWM_red.c ****         * Function Name: RGB_PWM_red_SetCompareMode1
 313:Generated_Source\PSoC5/RGB_PWM_red.c ****         ********************************************************************************
 314:Generated_Source\PSoC5/RGB_PWM_red.c ****         *
 315:Generated_Source\PSoC5/RGB_PWM_red.c ****         * Summary:
 316:Generated_Source\PSoC5/RGB_PWM_red.c ****         *  This function writes the Compare Mode for the pwm or pwm1 output
 317:Generated_Source\PSoC5/RGB_PWM_red.c ****         *
 318:Generated_Source\PSoC5/RGB_PWM_red.c ****         * Parameters:
 319:Generated_Source\PSoC5/RGB_PWM_red.c ****         *  comparemode:  The new compare mode for the PWM output. Use the compare types
 320:Generated_Source\PSoC5/RGB_PWM_red.c ****         *                defined in the H file as input arguments.
ARM GAS  C:\Users\Reza\AppData\Local\Temp\ccHE15tZ.s 			page 8


 321:Generated_Source\PSoC5/RGB_PWM_red.c ****         *
 322:Generated_Source\PSoC5/RGB_PWM_red.c ****         * Return:
 323:Generated_Source\PSoC5/RGB_PWM_red.c ****         *  None
 324:Generated_Source\PSoC5/RGB_PWM_red.c ****         *
 325:Generated_Source\PSoC5/RGB_PWM_red.c ****         *******************************************************************************/
 326:Generated_Source\PSoC5/RGB_PWM_red.c ****         void RGB_PWM_red_SetCompareMode1(uint8 comparemode) 
 327:Generated_Source\PSoC5/RGB_PWM_red.c ****         {
 328:Generated_Source\PSoC5/RGB_PWM_red.c ****             #if(0 != RGB_PWM_red_CTRL_CMPMODE1_SHIFT)
 329:Generated_Source\PSoC5/RGB_PWM_red.c ****                 uint8 comparemodemasked = ((uint8)((uint8)comparemode << RGB_PWM_red_CTRL_CMPMODE1_
 330:Generated_Source\PSoC5/RGB_PWM_red.c ****                                            RGB_PWM_red_CTRL_CMPMODE1_MASK;
 331:Generated_Source\PSoC5/RGB_PWM_red.c ****             #else
 332:Generated_Source\PSoC5/RGB_PWM_red.c ****                 uint8 comparemodemasked = comparemode & RGB_PWM_red_CTRL_CMPMODE1_MASK;
 333:Generated_Source\PSoC5/RGB_PWM_red.c ****             #endif /* (0 != RGB_PWM_red_CTRL_CMPMODE1_SHIFT) */
 334:Generated_Source\PSoC5/RGB_PWM_red.c **** 
 335:Generated_Source\PSoC5/RGB_PWM_red.c ****             #if (RGB_PWM_red_UseControl)
 336:Generated_Source\PSoC5/RGB_PWM_red.c ****                 RGB_PWM_red_CONTROL &= ((uint8)(~RGB_PWM_red_CTRL_CMPMODE1_MASK)); /*Clear existing
 337:Generated_Source\PSoC5/RGB_PWM_red.c ****                 RGB_PWM_red_CONTROL |= comparemodemasked;
 338:Generated_Source\PSoC5/RGB_PWM_red.c ****             #endif /* (RGB_PWM_red_UseControl) */
 339:Generated_Source\PSoC5/RGB_PWM_red.c ****         }
 340:Generated_Source\PSoC5/RGB_PWM_red.c ****     #endif /* RGB_PWM_red_CompareMode1SW */
 341:Generated_Source\PSoC5/RGB_PWM_red.c **** 
 342:Generated_Source\PSoC5/RGB_PWM_red.c **** #if (RGB_PWM_red_CompareMode2SW)
 343:Generated_Source\PSoC5/RGB_PWM_red.c **** 
 344:Generated_Source\PSoC5/RGB_PWM_red.c **** 
 345:Generated_Source\PSoC5/RGB_PWM_red.c ****     /*******************************************************************************
 346:Generated_Source\PSoC5/RGB_PWM_red.c ****     * Function Name: RGB_PWM_red_SetCompareMode2
 347:Generated_Source\PSoC5/RGB_PWM_red.c ****     ********************************************************************************
 348:Generated_Source\PSoC5/RGB_PWM_red.c ****     *
 349:Generated_Source\PSoC5/RGB_PWM_red.c ****     * Summary:
 350:Generated_Source\PSoC5/RGB_PWM_red.c ****     *  This function writes the Compare Mode for the pwm or pwm2 output
 351:Generated_Source\PSoC5/RGB_PWM_red.c ****     *
 352:Generated_Source\PSoC5/RGB_PWM_red.c ****     * Parameters:
 353:Generated_Source\PSoC5/RGB_PWM_red.c ****     *  comparemode:  The new compare mode for the PWM output. Use the compare types
 354:Generated_Source\PSoC5/RGB_PWM_red.c ****     *                defined in the H file as input arguments.
 355:Generated_Source\PSoC5/RGB_PWM_red.c ****     *
 356:Generated_Source\PSoC5/RGB_PWM_red.c ****     * Return:
 357:Generated_Source\PSoC5/RGB_PWM_red.c ****     *  None
 358:Generated_Source\PSoC5/RGB_PWM_red.c ****     *
 359:Generated_Source\PSoC5/RGB_PWM_red.c ****     *******************************************************************************/
 360:Generated_Source\PSoC5/RGB_PWM_red.c ****     void RGB_PWM_red_SetCompareMode2(uint8 comparemode) 
 361:Generated_Source\PSoC5/RGB_PWM_red.c ****     {
 362:Generated_Source\PSoC5/RGB_PWM_red.c **** 
 363:Generated_Source\PSoC5/RGB_PWM_red.c ****         #if(0 != RGB_PWM_red_CTRL_CMPMODE2_SHIFT)
 364:Generated_Source\PSoC5/RGB_PWM_red.c ****             uint8 comparemodemasked = ((uint8)((uint8)comparemode << RGB_PWM_red_CTRL_CMPMODE2_SHIF
 365:Generated_Source\PSoC5/RGB_PWM_red.c ****                                                  RGB_PWM_red_CTRL_CMPMODE2_MASK;
 366:Generated_Source\PSoC5/RGB_PWM_red.c ****         #else
 367:Generated_Source\PSoC5/RGB_PWM_red.c ****             uint8 comparemodemasked = comparemode & RGB_PWM_red_CTRL_CMPMODE2_MASK;
 368:Generated_Source\PSoC5/RGB_PWM_red.c ****         #endif /* (0 != RGB_PWM_red_CTRL_CMPMODE2_SHIFT) */
 369:Generated_Source\PSoC5/RGB_PWM_red.c **** 
 370:Generated_Source\PSoC5/RGB_PWM_red.c ****         #if (RGB_PWM_red_UseControl)
 371:Generated_Source\PSoC5/RGB_PWM_red.c ****             RGB_PWM_red_CONTROL &= ((uint8)(~RGB_PWM_red_CTRL_CMPMODE2_MASK)); /*Clear existing mod
 372:Generated_Source\PSoC5/RGB_PWM_red.c ****             RGB_PWM_red_CONTROL |= comparemodemasked;
 373:Generated_Source\PSoC5/RGB_PWM_red.c ****         #endif /* (RGB_PWM_red_UseControl) */
 374:Generated_Source\PSoC5/RGB_PWM_red.c ****     }
 375:Generated_Source\PSoC5/RGB_PWM_red.c ****     #endif /*RGB_PWM_red_CompareMode2SW */
 376:Generated_Source\PSoC5/RGB_PWM_red.c **** 
 377:Generated_Source\PSoC5/RGB_PWM_red.c **** #endif /* UseOneCompareMode */
ARM GAS  C:\Users\Reza\AppData\Local\Temp\ccHE15tZ.s 			page 9


 378:Generated_Source\PSoC5/RGB_PWM_red.c **** 
 379:Generated_Source\PSoC5/RGB_PWM_red.c **** 
 380:Generated_Source\PSoC5/RGB_PWM_red.c **** #if (!RGB_PWM_red_UsingFixedFunction)
 381:Generated_Source\PSoC5/RGB_PWM_red.c **** 
 382:Generated_Source\PSoC5/RGB_PWM_red.c **** 
 383:Generated_Source\PSoC5/RGB_PWM_red.c ****     /*******************************************************************************
 384:Generated_Source\PSoC5/RGB_PWM_red.c ****     * Function Name: RGB_PWM_red_WriteCounter
 385:Generated_Source\PSoC5/RGB_PWM_red.c ****     ********************************************************************************
 386:Generated_Source\PSoC5/RGB_PWM_red.c ****     *
 387:Generated_Source\PSoC5/RGB_PWM_red.c ****     * Summary:
 388:Generated_Source\PSoC5/RGB_PWM_red.c ****     *  Writes a new counter value directly to the counter register. This will be
 389:Generated_Source\PSoC5/RGB_PWM_red.c ****     *  implemented for that currently running period and only that period. This API
 390:Generated_Source\PSoC5/RGB_PWM_red.c ****     *  is valid only for UDB implementation and not available for fixed function
 391:Generated_Source\PSoC5/RGB_PWM_red.c ****     *  PWM implementation.
 392:Generated_Source\PSoC5/RGB_PWM_red.c ****     *
 393:Generated_Source\PSoC5/RGB_PWM_red.c ****     * Parameters:
 394:Generated_Source\PSoC5/RGB_PWM_red.c ****     *  counter:  The period new period counter value.
 395:Generated_Source\PSoC5/RGB_PWM_red.c ****     *
 396:Generated_Source\PSoC5/RGB_PWM_red.c ****     * Return:
 397:Generated_Source\PSoC5/RGB_PWM_red.c ****     *  None
 398:Generated_Source\PSoC5/RGB_PWM_red.c ****     *
 399:Generated_Source\PSoC5/RGB_PWM_red.c ****     * Side Effects:
 400:Generated_Source\PSoC5/RGB_PWM_red.c ****     *  The PWM Period will be reloaded when a counter value will be a zero
 401:Generated_Source\PSoC5/RGB_PWM_red.c ****     *
 402:Generated_Source\PSoC5/RGB_PWM_red.c ****     *******************************************************************************/
 403:Generated_Source\PSoC5/RGB_PWM_red.c ****     void RGB_PWM_red_WriteCounter(uint8 counter) \
 404:Generated_Source\PSoC5/RGB_PWM_red.c ****                                        
 405:Generated_Source\PSoC5/RGB_PWM_red.c ****     {
  80              		.loc 1 405 0
  81              		.cfi_startproc
  82              		@ args = 0, pretend = 0, frame = 0
  83              		@ frame_needed = 0, uses_anonymous_args = 0
  84              		@ link register save eliminated.
  85              	.LVL0:
 406:Generated_Source\PSoC5/RGB_PWM_red.c ****         CY_SET_REG8(RGB_PWM_red_COUNTER_LSB_PTR, counter);
  86              		.loc 1 406 0
  87 0000 014B     		ldr	r3, .L8
  88 0002 1870     		strb	r0, [r3]
  89 0004 7047     		bx	lr
  90              	.L9:
  91 0006 00BF     		.align	2
  92              	.L8:
  93 0008 0F640040 		.word	1073767439
  94              		.cfi_endproc
  95              	.LFE4:
  96              		.size	RGB_PWM_red_WriteCounter, .-RGB_PWM_red_WriteCounter
  97              		.section	.text.RGB_PWM_red_ReadCounter,"ax",%progbits
  98              		.align	2
  99              		.global	RGB_PWM_red_ReadCounter
 100              		.thumb
 101              		.thumb_func
 102              		.type	RGB_PWM_red_ReadCounter, %function
 103              	RGB_PWM_red_ReadCounter:
 104              	.LFB5:
 407:Generated_Source\PSoC5/RGB_PWM_red.c ****     }
 408:Generated_Source\PSoC5/RGB_PWM_red.c **** 
 409:Generated_Source\PSoC5/RGB_PWM_red.c **** 
ARM GAS  C:\Users\Reza\AppData\Local\Temp\ccHE15tZ.s 			page 10


 410:Generated_Source\PSoC5/RGB_PWM_red.c ****     /*******************************************************************************
 411:Generated_Source\PSoC5/RGB_PWM_red.c ****     * Function Name: RGB_PWM_red_ReadCounter
 412:Generated_Source\PSoC5/RGB_PWM_red.c ****     ********************************************************************************
 413:Generated_Source\PSoC5/RGB_PWM_red.c ****     *
 414:Generated_Source\PSoC5/RGB_PWM_red.c ****     * Summary:
 415:Generated_Source\PSoC5/RGB_PWM_red.c ****     *  This function returns the current value of the counter.  It doesn't matter
 416:Generated_Source\PSoC5/RGB_PWM_red.c ****     *  if the counter is enabled or running.
 417:Generated_Source\PSoC5/RGB_PWM_red.c ****     *
 418:Generated_Source\PSoC5/RGB_PWM_red.c ****     * Parameters:
 419:Generated_Source\PSoC5/RGB_PWM_red.c ****     *  None
 420:Generated_Source\PSoC5/RGB_PWM_red.c ****     *
 421:Generated_Source\PSoC5/RGB_PWM_red.c ****     * Return:
 422:Generated_Source\PSoC5/RGB_PWM_red.c ****     *  The current value of the counter.
 423:Generated_Source\PSoC5/RGB_PWM_red.c ****     *
 424:Generated_Source\PSoC5/RGB_PWM_red.c ****     *******************************************************************************/
 425:Generated_Source\PSoC5/RGB_PWM_red.c ****     uint8 RGB_PWM_red_ReadCounter(void) 
 426:Generated_Source\PSoC5/RGB_PWM_red.c ****     {
 105              		.loc 1 426 0
 106              		.cfi_startproc
 107              		@ args = 0, pretend = 0, frame = 0
 108              		@ frame_needed = 0, uses_anonymous_args = 0
 109              		@ link register save eliminated.
 427:Generated_Source\PSoC5/RGB_PWM_red.c ****         /* Force capture by reading Accumulator */
 428:Generated_Source\PSoC5/RGB_PWM_red.c ****         /* Must first do a software capture to be able to read the counter */
 429:Generated_Source\PSoC5/RGB_PWM_red.c ****         /* It is up to the user code to make sure there isn't already captured data in the FIFO */
 430:Generated_Source\PSoC5/RGB_PWM_red.c ****           (void)CY_GET_REG8(RGB_PWM_red_COUNTERCAP_LSB_PTR_8BIT);
 110              		.loc 1 430 0
 111 0000 024B     		ldr	r3, .L11
 112 0002 1B78     		ldrb	r3, [r3]	@ zero_extendqisi2
 431:Generated_Source\PSoC5/RGB_PWM_red.c **** 
 432:Generated_Source\PSoC5/RGB_PWM_red.c ****         /* Read the data from the FIFO */
 433:Generated_Source\PSoC5/RGB_PWM_red.c ****         return (CY_GET_REG8(RGB_PWM_red_CAPTURE_LSB_PTR));
 113              		.loc 1 433 0
 114 0004 024B     		ldr	r3, .L11+4
 115 0006 1878     		ldrb	r0, [r3]	@ zero_extendqisi2
 434:Generated_Source\PSoC5/RGB_PWM_red.c ****     }
 116              		.loc 1 434 0
 117 0008 7047     		bx	lr
 118              	.L12:
 119 000a 00BF     		.align	2
 120              	.L11:
 121 000c 1F640040 		.word	1073767455
 122 0010 5F640040 		.word	1073767519
 123              		.cfi_endproc
 124              	.LFE5:
 125              		.size	RGB_PWM_red_ReadCounter, .-RGB_PWM_red_ReadCounter
 126              		.section	.text.RGB_PWM_red_WritePeriod,"ax",%progbits
 127              		.align	2
 128              		.global	RGB_PWM_red_WritePeriod
 129              		.thumb
 130              		.thumb_func
 131              		.type	RGB_PWM_red_WritePeriod, %function
 132              	RGB_PWM_red_WritePeriod:
 133              	.LFB6:
 435:Generated_Source\PSoC5/RGB_PWM_red.c **** 
 436:Generated_Source\PSoC5/RGB_PWM_red.c ****     #if (RGB_PWM_red_UseStatus)
 437:Generated_Source\PSoC5/RGB_PWM_red.c **** 
ARM GAS  C:\Users\Reza\AppData\Local\Temp\ccHE15tZ.s 			page 11


 438:Generated_Source\PSoC5/RGB_PWM_red.c **** 
 439:Generated_Source\PSoC5/RGB_PWM_red.c ****         /*******************************************************************************
 440:Generated_Source\PSoC5/RGB_PWM_red.c ****         * Function Name: RGB_PWM_red_ClearFIFO
 441:Generated_Source\PSoC5/RGB_PWM_red.c ****         ********************************************************************************
 442:Generated_Source\PSoC5/RGB_PWM_red.c ****         *
 443:Generated_Source\PSoC5/RGB_PWM_red.c ****         * Summary:
 444:Generated_Source\PSoC5/RGB_PWM_red.c ****         *  This function clears all capture data from the capture FIFO
 445:Generated_Source\PSoC5/RGB_PWM_red.c ****         *
 446:Generated_Source\PSoC5/RGB_PWM_red.c ****         * Parameters:
 447:Generated_Source\PSoC5/RGB_PWM_red.c ****         *  None
 448:Generated_Source\PSoC5/RGB_PWM_red.c ****         *
 449:Generated_Source\PSoC5/RGB_PWM_red.c ****         * Return:
 450:Generated_Source\PSoC5/RGB_PWM_red.c ****         *  None
 451:Generated_Source\PSoC5/RGB_PWM_red.c ****         *
 452:Generated_Source\PSoC5/RGB_PWM_red.c ****         *******************************************************************************/
 453:Generated_Source\PSoC5/RGB_PWM_red.c ****         void RGB_PWM_red_ClearFIFO(void) 
 454:Generated_Source\PSoC5/RGB_PWM_red.c ****         {
 455:Generated_Source\PSoC5/RGB_PWM_red.c ****             while(0u != (RGB_PWM_red_ReadStatusRegister() & RGB_PWM_red_STATUS_FIFONEMPTY))
 456:Generated_Source\PSoC5/RGB_PWM_red.c ****             {
 457:Generated_Source\PSoC5/RGB_PWM_red.c ****                 (void)RGB_PWM_red_ReadCapture();
 458:Generated_Source\PSoC5/RGB_PWM_red.c ****             }
 459:Generated_Source\PSoC5/RGB_PWM_red.c ****         }
 460:Generated_Source\PSoC5/RGB_PWM_red.c **** 
 461:Generated_Source\PSoC5/RGB_PWM_red.c ****     #endif /* RGB_PWM_red_UseStatus */
 462:Generated_Source\PSoC5/RGB_PWM_red.c **** 
 463:Generated_Source\PSoC5/RGB_PWM_red.c **** #endif /* !RGB_PWM_red_UsingFixedFunction */
 464:Generated_Source\PSoC5/RGB_PWM_red.c **** 
 465:Generated_Source\PSoC5/RGB_PWM_red.c **** 
 466:Generated_Source\PSoC5/RGB_PWM_red.c **** /*******************************************************************************
 467:Generated_Source\PSoC5/RGB_PWM_red.c **** * Function Name: RGB_PWM_red_WritePeriod
 468:Generated_Source\PSoC5/RGB_PWM_red.c **** ********************************************************************************
 469:Generated_Source\PSoC5/RGB_PWM_red.c **** *
 470:Generated_Source\PSoC5/RGB_PWM_red.c **** * Summary:
 471:Generated_Source\PSoC5/RGB_PWM_red.c **** *  This function is used to change the period of the counter.  The new period
 472:Generated_Source\PSoC5/RGB_PWM_red.c **** *  will be loaded the next time terminal count is detected.
 473:Generated_Source\PSoC5/RGB_PWM_red.c **** *
 474:Generated_Source\PSoC5/RGB_PWM_red.c **** * Parameters:
 475:Generated_Source\PSoC5/RGB_PWM_red.c **** *  period:  Period value. May be between 1 and (2^Resolution)-1.  A value of 0
 476:Generated_Source\PSoC5/RGB_PWM_red.c **** *           will result in the counter remaining at zero.
 477:Generated_Source\PSoC5/RGB_PWM_red.c **** *
 478:Generated_Source\PSoC5/RGB_PWM_red.c **** * Return:
 479:Generated_Source\PSoC5/RGB_PWM_red.c **** *  None
 480:Generated_Source\PSoC5/RGB_PWM_red.c **** *
 481:Generated_Source\PSoC5/RGB_PWM_red.c **** *******************************************************************************/
 482:Generated_Source\PSoC5/RGB_PWM_red.c **** void RGB_PWM_red_WritePeriod(uint8 period) 
 483:Generated_Source\PSoC5/RGB_PWM_red.c **** {
 134              		.loc 1 483 0
 135              		.cfi_startproc
 136              		@ args = 0, pretend = 0, frame = 0
 137              		@ frame_needed = 0, uses_anonymous_args = 0
 138              		@ link register save eliminated.
 139              	.LVL1:
 484:Generated_Source\PSoC5/RGB_PWM_red.c ****     #if(RGB_PWM_red_UsingFixedFunction)
 485:Generated_Source\PSoC5/RGB_PWM_red.c ****         CY_SET_REG16(RGB_PWM_red_PERIOD_LSB_PTR, (uint16)period);
 486:Generated_Source\PSoC5/RGB_PWM_red.c ****     #else
 487:Generated_Source\PSoC5/RGB_PWM_red.c ****         CY_SET_REG8(RGB_PWM_red_PERIOD_LSB_PTR, period);
 140              		.loc 1 487 0
ARM GAS  C:\Users\Reza\AppData\Local\Temp\ccHE15tZ.s 			page 12


 141 0000 014B     		ldr	r3, .L14
 142 0002 1870     		strb	r0, [r3]
 143 0004 7047     		bx	lr
 144              	.L15:
 145 0006 00BF     		.align	2
 146              	.L14:
 147 0008 4F640040 		.word	1073767503
 148              		.cfi_endproc
 149              	.LFE6:
 150              		.size	RGB_PWM_red_WritePeriod, .-RGB_PWM_red_WritePeriod
 151              		.section	.text.RGB_PWM_red_WriteCompare,"ax",%progbits
 152              		.align	2
 153              		.global	RGB_PWM_red_WriteCompare
 154              		.thumb
 155              		.thumb_func
 156              		.type	RGB_PWM_red_WriteCompare, %function
 157              	RGB_PWM_red_WriteCompare:
 158              	.LFB7:
 488:Generated_Source\PSoC5/RGB_PWM_red.c ****     #endif /* (RGB_PWM_red_UsingFixedFunction) */
 489:Generated_Source\PSoC5/RGB_PWM_red.c **** }
 490:Generated_Source\PSoC5/RGB_PWM_red.c **** 
 491:Generated_Source\PSoC5/RGB_PWM_red.c **** #if (RGB_PWM_red_UseOneCompareMode)
 492:Generated_Source\PSoC5/RGB_PWM_red.c **** 
 493:Generated_Source\PSoC5/RGB_PWM_red.c **** 
 494:Generated_Source\PSoC5/RGB_PWM_red.c ****     /*******************************************************************************
 495:Generated_Source\PSoC5/RGB_PWM_red.c ****     * Function Name: RGB_PWM_red_WriteCompare
 496:Generated_Source\PSoC5/RGB_PWM_red.c ****     ********************************************************************************
 497:Generated_Source\PSoC5/RGB_PWM_red.c ****     *
 498:Generated_Source\PSoC5/RGB_PWM_red.c ****     * Summary:
 499:Generated_Source\PSoC5/RGB_PWM_red.c ****     *  This funtion is used to change the compare1 value when the PWM is in Dither
 500:Generated_Source\PSoC5/RGB_PWM_red.c ****     *  mode. The compare output will reflect the new value on the next UDB clock.
 501:Generated_Source\PSoC5/RGB_PWM_red.c ****     *  The compare output will be driven high when the present counter value is
 502:Generated_Source\PSoC5/RGB_PWM_red.c ****     *  compared to the compare value based on the compare mode defined in
 503:Generated_Source\PSoC5/RGB_PWM_red.c ****     *  Dither Mode.
 504:Generated_Source\PSoC5/RGB_PWM_red.c ****     *
 505:Generated_Source\PSoC5/RGB_PWM_red.c ****     * Parameters:
 506:Generated_Source\PSoC5/RGB_PWM_red.c ****     *  compare:  New compare value.
 507:Generated_Source\PSoC5/RGB_PWM_red.c ****     *
 508:Generated_Source\PSoC5/RGB_PWM_red.c ****     * Return:
 509:Generated_Source\PSoC5/RGB_PWM_red.c ****     *  None
 510:Generated_Source\PSoC5/RGB_PWM_red.c ****     *
 511:Generated_Source\PSoC5/RGB_PWM_red.c ****     * Side Effects:
 512:Generated_Source\PSoC5/RGB_PWM_red.c ****     *  This function is only available if the PWM mode parameter is set to
 513:Generated_Source\PSoC5/RGB_PWM_red.c ****     *  Dither Mode, Center Aligned Mode or One Output Mode
 514:Generated_Source\PSoC5/RGB_PWM_red.c ****     *
 515:Generated_Source\PSoC5/RGB_PWM_red.c ****     *******************************************************************************/
 516:Generated_Source\PSoC5/RGB_PWM_red.c ****     void RGB_PWM_red_WriteCompare(uint8 compare) \
 517:Generated_Source\PSoC5/RGB_PWM_red.c ****                                        
 518:Generated_Source\PSoC5/RGB_PWM_red.c ****     {
 159              		.loc 1 518 0
 160              		.cfi_startproc
 161              		@ args = 0, pretend = 0, frame = 0
 162              		@ frame_needed = 0, uses_anonymous_args = 0
 163              		@ link register save eliminated.
 164              	.LVL2:
 519:Generated_Source\PSoC5/RGB_PWM_red.c ****         #if(RGB_PWM_red_UsingFixedFunction)
 520:Generated_Source\PSoC5/RGB_PWM_red.c ****             CY_SET_REG16(RGB_PWM_red_COMPARE1_LSB_PTR, (uint16)compare);
ARM GAS  C:\Users\Reza\AppData\Local\Temp\ccHE15tZ.s 			page 13


 521:Generated_Source\PSoC5/RGB_PWM_red.c ****         #else
 522:Generated_Source\PSoC5/RGB_PWM_red.c ****             CY_SET_REG8(RGB_PWM_red_COMPARE1_LSB_PTR, compare);
 165              		.loc 1 522 0
 166 0000 014B     		ldr	r3, .L17
 167 0002 1870     		strb	r0, [r3]
 168 0004 7047     		bx	lr
 169              	.L18:
 170 0006 00BF     		.align	2
 171              	.L17:
 172 0008 2F640040 		.word	1073767471
 173              		.cfi_endproc
 174              	.LFE7:
 175              		.size	RGB_PWM_red_WriteCompare, .-RGB_PWM_red_WriteCompare
 176              		.section	.text.RGB_PWM_red_Init,"ax",%progbits
 177              		.align	2
 178              		.global	RGB_PWM_red_Init
 179              		.thumb
 180              		.thumb_func
 181              		.type	RGB_PWM_red_Init, %function
 182              	RGB_PWM_red_Init:
 183              	.LFB1:
  85:Generated_Source\PSoC5/RGB_PWM_red.c ****     #if (RGB_PWM_red_UsingFixedFunction || RGB_PWM_red_UseControl)
 184              		.loc 1 85 0
 185              		.cfi_startproc
 186              		@ args = 0, pretend = 0, frame = 0
 187              		@ frame_needed = 0, uses_anonymous_args = 0
 188 0000 08B5     		push	{r3, lr}
 189              		.cfi_def_cfa_offset 8
 190              		.cfi_offset 3, -8
 191              		.cfi_offset 14, -4
 117:Generated_Source\PSoC5/RGB_PWM_red.c ****                 ((uint8)(~RGB_PWM_red_CTRL_CMPMODE1_MASK));
 192              		.loc 1 117 0
 193 0002 0B4A     		ldr	r2, .L21
 194 0004 1378     		ldrb	r3, [r2]	@ zero_extendqisi2
 195 0006 03F0C003 		and	r3, r3, #192
 196              	.LVL3:
 119:Generated_Source\PSoC5/RGB_PWM_red.c ****                                    RGB_PWM_red_DEFAULT_COMPARE1_MODE;
 197              		.loc 1 119 0
 198 000a 43F00903 		orr	r3, r3, #9
 199              	.LVL4:
 200 000e 1370     		strb	r3, [r2]
 126:Generated_Source\PSoC5/RGB_PWM_red.c ****         #else /* (RGB_PWM_red_Resolution == 16)*/
 201              		.loc 1 126 0
 202 0010 2132     		adds	r2, r2, #33
 203 0012 1378     		ldrb	r3, [r2]	@ zero_extendqisi2
 204 0014 43F00103 		orr	r3, r3, #1
 205 0018 1370     		strb	r3, [r2]
 133:Generated_Source\PSoC5/RGB_PWM_red.c ****     #endif /* (!RGB_PWM_red_UsingFixedFunction) */
 206              		.loc 1 133 0
 207 001a FF20     		movs	r0, #255
 208 001c FFF7FEFF 		bl	RGB_PWM_red_WriteCounter
 209              	.LVL5:
 136:Generated_Source\PSoC5/RGB_PWM_red.c **** 
 210              		.loc 1 136 0
 211 0020 FF20     		movs	r0, #255
 212 0022 FFF7FEFF 		bl	RGB_PWM_red_WritePeriod
 213              	.LVL6:
ARM GAS  C:\Users\Reza\AppData\Local\Temp\ccHE15tZ.s 			page 14


 139:Generated_Source\PSoC5/RGB_PWM_red.c ****         #else
 214              		.loc 1 139 0
 215 0026 0020     		movs	r0, #0
 216 0028 FFF7FEFF 		bl	RGB_PWM_red_WriteCompare
 217              	.LVL7:
 218 002c 08BD     		pop	{r3, pc}
 219              	.L22:
 220 002e 00BF     		.align	2
 221              	.L21:
 222 0030 7E640040 		.word	1073767550
 223              		.cfi_endproc
 224              	.LFE1:
 225              		.size	RGB_PWM_red_Init, .-RGB_PWM_red_Init
 226              		.section	.text.RGB_PWM_red_Start,"ax",%progbits
 227              		.align	2
 228              		.global	RGB_PWM_red_Start
 229              		.thumb
 230              		.thumb_func
 231              		.type	RGB_PWM_red_Start, %function
 232              	RGB_PWM_red_Start:
 233              	.LFB0:
  56:Generated_Source\PSoC5/RGB_PWM_red.c ****     /* If not Initialized then initialize all required hardware and software */
 234              		.loc 1 56 0
 235              		.cfi_startproc
 236              		@ args = 0, pretend = 0, frame = 0
 237              		@ frame_needed = 0, uses_anonymous_args = 0
 238 0000 08B5     		push	{r3, lr}
 239              		.cfi_def_cfa_offset 8
 240              		.cfi_offset 3, -8
 241              		.cfi_offset 14, -4
  58:Generated_Source\PSoC5/RGB_PWM_red.c ****     {
 242              		.loc 1 58 0
 243 0002 054B     		ldr	r3, .L26
 244 0004 1B78     		ldrb	r3, [r3]	@ zero_extendqisi2
 245 0006 23B9     		cbnz	r3, .L24
  60:Generated_Source\PSoC5/RGB_PWM_red.c ****         RGB_PWM_red_initVar = 1u;
 246              		.loc 1 60 0
 247 0008 FFF7FEFF 		bl	RGB_PWM_red_Init
 248              	.LVL8:
  61:Generated_Source\PSoC5/RGB_PWM_red.c ****     }
 249              		.loc 1 61 0
 250 000c 0122     		movs	r2, #1
 251 000e 024B     		ldr	r3, .L26
 252 0010 1A70     		strb	r2, [r3]
 253              	.L24:
  63:Generated_Source\PSoC5/RGB_PWM_red.c **** 
 254              		.loc 1 63 0
 255 0012 FFF7FEFF 		bl	RGB_PWM_red_Enable
 256              	.LVL9:
 257 0016 08BD     		pop	{r3, pc}
 258              	.L27:
 259              		.align	2
 260              	.L26:
 261 0018 00000000 		.word	.LANCHOR0
 262              		.cfi_endproc
 263              	.LFE0:
 264              		.size	RGB_PWM_red_Start, .-RGB_PWM_red_Start
ARM GAS  C:\Users\Reza\AppData\Local\Temp\ccHE15tZ.s 			page 15


 265              		.section	.text.RGB_PWM_red_ReadControlRegister,"ax",%progbits
 266              		.align	2
 267              		.global	RGB_PWM_red_ReadControlRegister
 268              		.thumb
 269              		.thumb_func
 270              		.type	RGB_PWM_red_ReadControlRegister, %function
 271              	RGB_PWM_red_ReadControlRegister:
 272              	.LFB8:
 523:Generated_Source\PSoC5/RGB_PWM_red.c ****         #endif /* (RGB_PWM_red_UsingFixedFunction) */
 524:Generated_Source\PSoC5/RGB_PWM_red.c **** 
 525:Generated_Source\PSoC5/RGB_PWM_red.c ****         #if (RGB_PWM_red_PWMMode == RGB_PWM_red__B_PWM__DITHER)
 526:Generated_Source\PSoC5/RGB_PWM_red.c ****             #if(RGB_PWM_red_UsingFixedFunction)
 527:Generated_Source\PSoC5/RGB_PWM_red.c ****                 CY_SET_REG16(RGB_PWM_red_COMPARE2_LSB_PTR, (uint16)(compare + 1u));
 528:Generated_Source\PSoC5/RGB_PWM_red.c ****             #else
 529:Generated_Source\PSoC5/RGB_PWM_red.c ****                 CY_SET_REG8(RGB_PWM_red_COMPARE2_LSB_PTR, (compare + 1u));
 530:Generated_Source\PSoC5/RGB_PWM_red.c ****             #endif /* (RGB_PWM_red_UsingFixedFunction) */
 531:Generated_Source\PSoC5/RGB_PWM_red.c ****         #endif /* (RGB_PWM_red_PWMMode == RGB_PWM_red__B_PWM__DITHER) */
 532:Generated_Source\PSoC5/RGB_PWM_red.c ****     }
 533:Generated_Source\PSoC5/RGB_PWM_red.c **** 
 534:Generated_Source\PSoC5/RGB_PWM_red.c **** 
 535:Generated_Source\PSoC5/RGB_PWM_red.c **** #else
 536:Generated_Source\PSoC5/RGB_PWM_red.c **** 
 537:Generated_Source\PSoC5/RGB_PWM_red.c **** 
 538:Generated_Source\PSoC5/RGB_PWM_red.c ****     /*******************************************************************************
 539:Generated_Source\PSoC5/RGB_PWM_red.c ****     * Function Name: RGB_PWM_red_WriteCompare1
 540:Generated_Source\PSoC5/RGB_PWM_red.c ****     ********************************************************************************
 541:Generated_Source\PSoC5/RGB_PWM_red.c ****     *
 542:Generated_Source\PSoC5/RGB_PWM_red.c ****     * Summary:
 543:Generated_Source\PSoC5/RGB_PWM_red.c ****     *  This funtion is used to change the compare1 value.  The compare output will
 544:Generated_Source\PSoC5/RGB_PWM_red.c ****     *  reflect the new value on the next UDB clock.  The compare output will be
 545:Generated_Source\PSoC5/RGB_PWM_red.c ****     *  driven high when the present counter value is less than or less than or
 546:Generated_Source\PSoC5/RGB_PWM_red.c ****     *  equal to the compare register, depending on the mode.
 547:Generated_Source\PSoC5/RGB_PWM_red.c ****     *
 548:Generated_Source\PSoC5/RGB_PWM_red.c ****     * Parameters:
 549:Generated_Source\PSoC5/RGB_PWM_red.c ****     *  compare:  New compare value.
 550:Generated_Source\PSoC5/RGB_PWM_red.c ****     *
 551:Generated_Source\PSoC5/RGB_PWM_red.c ****     * Return:
 552:Generated_Source\PSoC5/RGB_PWM_red.c ****     *  None
 553:Generated_Source\PSoC5/RGB_PWM_red.c ****     *
 554:Generated_Source\PSoC5/RGB_PWM_red.c ****     *******************************************************************************/
 555:Generated_Source\PSoC5/RGB_PWM_red.c ****     void RGB_PWM_red_WriteCompare1(uint8 compare) \
 556:Generated_Source\PSoC5/RGB_PWM_red.c ****                                         
 557:Generated_Source\PSoC5/RGB_PWM_red.c ****     {
 558:Generated_Source\PSoC5/RGB_PWM_red.c ****         #if(RGB_PWM_red_UsingFixedFunction)
 559:Generated_Source\PSoC5/RGB_PWM_red.c ****             CY_SET_REG16(RGB_PWM_red_COMPARE1_LSB_PTR, (uint16)compare);
 560:Generated_Source\PSoC5/RGB_PWM_red.c ****         #else
 561:Generated_Source\PSoC5/RGB_PWM_red.c ****             CY_SET_REG8(RGB_PWM_red_COMPARE1_LSB_PTR, compare);
 562:Generated_Source\PSoC5/RGB_PWM_red.c ****         #endif /* (RGB_PWM_red_UsingFixedFunction) */
 563:Generated_Source\PSoC5/RGB_PWM_red.c ****     }
 564:Generated_Source\PSoC5/RGB_PWM_red.c **** 
 565:Generated_Source\PSoC5/RGB_PWM_red.c **** 
 566:Generated_Source\PSoC5/RGB_PWM_red.c ****     /*******************************************************************************
 567:Generated_Source\PSoC5/RGB_PWM_red.c ****     * Function Name: RGB_PWM_red_WriteCompare2
 568:Generated_Source\PSoC5/RGB_PWM_red.c ****     ********************************************************************************
 569:Generated_Source\PSoC5/RGB_PWM_red.c ****     *
 570:Generated_Source\PSoC5/RGB_PWM_red.c ****     * Summary:
 571:Generated_Source\PSoC5/RGB_PWM_red.c ****     *  This funtion is used to change the compare value, for compare1 output.
ARM GAS  C:\Users\Reza\AppData\Local\Temp\ccHE15tZ.s 			page 16


 572:Generated_Source\PSoC5/RGB_PWM_red.c ****     *  The compare output will reflect the new value on the next UDB clock.
 573:Generated_Source\PSoC5/RGB_PWM_red.c ****     *  The compare output will be driven high when the present counter value is
 574:Generated_Source\PSoC5/RGB_PWM_red.c ****     *  less than or less than or equal to the compare register, depending on the
 575:Generated_Source\PSoC5/RGB_PWM_red.c ****     *  mode.
 576:Generated_Source\PSoC5/RGB_PWM_red.c ****     *
 577:Generated_Source\PSoC5/RGB_PWM_red.c ****     * Parameters:
 578:Generated_Source\PSoC5/RGB_PWM_red.c ****     *  compare:  New compare value.
 579:Generated_Source\PSoC5/RGB_PWM_red.c ****     *
 580:Generated_Source\PSoC5/RGB_PWM_red.c ****     * Return:
 581:Generated_Source\PSoC5/RGB_PWM_red.c ****     *  None
 582:Generated_Source\PSoC5/RGB_PWM_red.c ****     *
 583:Generated_Source\PSoC5/RGB_PWM_red.c ****     *******************************************************************************/
 584:Generated_Source\PSoC5/RGB_PWM_red.c ****     void RGB_PWM_red_WriteCompare2(uint8 compare) \
 585:Generated_Source\PSoC5/RGB_PWM_red.c ****                                         
 586:Generated_Source\PSoC5/RGB_PWM_red.c ****     {
 587:Generated_Source\PSoC5/RGB_PWM_red.c ****         #if(RGB_PWM_red_UsingFixedFunction)
 588:Generated_Source\PSoC5/RGB_PWM_red.c ****             CY_SET_REG16(RGB_PWM_red_COMPARE2_LSB_PTR, compare);
 589:Generated_Source\PSoC5/RGB_PWM_red.c ****         #else
 590:Generated_Source\PSoC5/RGB_PWM_red.c ****             CY_SET_REG8(RGB_PWM_red_COMPARE2_LSB_PTR, compare);
 591:Generated_Source\PSoC5/RGB_PWM_red.c ****         #endif /* (RGB_PWM_red_UsingFixedFunction) */
 592:Generated_Source\PSoC5/RGB_PWM_red.c ****     }
 593:Generated_Source\PSoC5/RGB_PWM_red.c **** #endif /* UseOneCompareMode */
 594:Generated_Source\PSoC5/RGB_PWM_red.c **** 
 595:Generated_Source\PSoC5/RGB_PWM_red.c **** #if (RGB_PWM_red_DeadBandUsed)
 596:Generated_Source\PSoC5/RGB_PWM_red.c **** 
 597:Generated_Source\PSoC5/RGB_PWM_red.c **** 
 598:Generated_Source\PSoC5/RGB_PWM_red.c ****     /*******************************************************************************
 599:Generated_Source\PSoC5/RGB_PWM_red.c ****     * Function Name: RGB_PWM_red_WriteDeadTime
 600:Generated_Source\PSoC5/RGB_PWM_red.c ****     ********************************************************************************
 601:Generated_Source\PSoC5/RGB_PWM_red.c ****     *
 602:Generated_Source\PSoC5/RGB_PWM_red.c ****     * Summary:
 603:Generated_Source\PSoC5/RGB_PWM_red.c ****     *  This function writes the dead-band counts to the corresponding register
 604:Generated_Source\PSoC5/RGB_PWM_red.c ****     *
 605:Generated_Source\PSoC5/RGB_PWM_red.c ****     * Parameters:
 606:Generated_Source\PSoC5/RGB_PWM_red.c ****     *  deadtime:  Number of counts for dead time
 607:Generated_Source\PSoC5/RGB_PWM_red.c ****     *
 608:Generated_Source\PSoC5/RGB_PWM_red.c ****     * Return:
 609:Generated_Source\PSoC5/RGB_PWM_red.c ****     *  None
 610:Generated_Source\PSoC5/RGB_PWM_red.c ****     *
 611:Generated_Source\PSoC5/RGB_PWM_red.c ****     *******************************************************************************/
 612:Generated_Source\PSoC5/RGB_PWM_red.c ****     void RGB_PWM_red_WriteDeadTime(uint8 deadtime) 
 613:Generated_Source\PSoC5/RGB_PWM_red.c ****     {
 614:Generated_Source\PSoC5/RGB_PWM_red.c ****         /* If using the Dead Band 1-255 mode then just write the register */
 615:Generated_Source\PSoC5/RGB_PWM_red.c ****         #if(!RGB_PWM_red_DeadBand2_4)
 616:Generated_Source\PSoC5/RGB_PWM_red.c ****             CY_SET_REG8(RGB_PWM_red_DEADBAND_COUNT_PTR, deadtime);
 617:Generated_Source\PSoC5/RGB_PWM_red.c ****         #else
 618:Generated_Source\PSoC5/RGB_PWM_red.c ****             /* Otherwise the data has to be masked and offset */
 619:Generated_Source\PSoC5/RGB_PWM_red.c ****             /* Clear existing data */
 620:Generated_Source\PSoC5/RGB_PWM_red.c ****             RGB_PWM_red_DEADBAND_COUNT &= ((uint8)(~RGB_PWM_red_DEADBAND_COUNT_MASK));
 621:Generated_Source\PSoC5/RGB_PWM_red.c **** 
 622:Generated_Source\PSoC5/RGB_PWM_red.c ****             /* Set new dead time */
 623:Generated_Source\PSoC5/RGB_PWM_red.c ****             #if(RGB_PWM_red_DEADBAND_COUNT_SHIFT)
 624:Generated_Source\PSoC5/RGB_PWM_red.c ****                 RGB_PWM_red_DEADBAND_COUNT |= ((uint8)((uint8)deadtime << RGB_PWM_red_DEADBAND_COUN
 625:Generated_Source\PSoC5/RGB_PWM_red.c ****                                                     RGB_PWM_red_DEADBAND_COUNT_MASK;
 626:Generated_Source\PSoC5/RGB_PWM_red.c ****             #else
 627:Generated_Source\PSoC5/RGB_PWM_red.c ****                 RGB_PWM_red_DEADBAND_COUNT |= deadtime & RGB_PWM_red_DEADBAND_COUNT_MASK;
 628:Generated_Source\PSoC5/RGB_PWM_red.c ****             #endif /* (RGB_PWM_red_DEADBAND_COUNT_SHIFT) */
ARM GAS  C:\Users\Reza\AppData\Local\Temp\ccHE15tZ.s 			page 17


 629:Generated_Source\PSoC5/RGB_PWM_red.c **** 
 630:Generated_Source\PSoC5/RGB_PWM_red.c ****         #endif /* (!RGB_PWM_red_DeadBand2_4) */
 631:Generated_Source\PSoC5/RGB_PWM_red.c ****     }
 632:Generated_Source\PSoC5/RGB_PWM_red.c **** 
 633:Generated_Source\PSoC5/RGB_PWM_red.c **** 
 634:Generated_Source\PSoC5/RGB_PWM_red.c ****     /*******************************************************************************
 635:Generated_Source\PSoC5/RGB_PWM_red.c ****     * Function Name: RGB_PWM_red_ReadDeadTime
 636:Generated_Source\PSoC5/RGB_PWM_red.c ****     ********************************************************************************
 637:Generated_Source\PSoC5/RGB_PWM_red.c ****     *
 638:Generated_Source\PSoC5/RGB_PWM_red.c ****     * Summary:
 639:Generated_Source\PSoC5/RGB_PWM_red.c ****     *  This function reads the dead-band counts from the corresponding register
 640:Generated_Source\PSoC5/RGB_PWM_red.c ****     *
 641:Generated_Source\PSoC5/RGB_PWM_red.c ****     * Parameters:
 642:Generated_Source\PSoC5/RGB_PWM_red.c ****     *  None
 643:Generated_Source\PSoC5/RGB_PWM_red.c ****     *
 644:Generated_Source\PSoC5/RGB_PWM_red.c ****     * Return:
 645:Generated_Source\PSoC5/RGB_PWM_red.c ****     *  Dead Band Counts
 646:Generated_Source\PSoC5/RGB_PWM_red.c ****     *
 647:Generated_Source\PSoC5/RGB_PWM_red.c ****     *******************************************************************************/
 648:Generated_Source\PSoC5/RGB_PWM_red.c ****     uint8 RGB_PWM_red_ReadDeadTime(void) 
 649:Generated_Source\PSoC5/RGB_PWM_red.c ****     {
 650:Generated_Source\PSoC5/RGB_PWM_red.c ****         /* If using the Dead Band 1-255 mode then just read the register */
 651:Generated_Source\PSoC5/RGB_PWM_red.c ****         #if(!RGB_PWM_red_DeadBand2_4)
 652:Generated_Source\PSoC5/RGB_PWM_red.c ****             return (CY_GET_REG8(RGB_PWM_red_DEADBAND_COUNT_PTR));
 653:Generated_Source\PSoC5/RGB_PWM_red.c ****         #else
 654:Generated_Source\PSoC5/RGB_PWM_red.c **** 
 655:Generated_Source\PSoC5/RGB_PWM_red.c ****             /* Otherwise the data has to be masked and offset */
 656:Generated_Source\PSoC5/RGB_PWM_red.c ****             #if(RGB_PWM_red_DEADBAND_COUNT_SHIFT)
 657:Generated_Source\PSoC5/RGB_PWM_red.c ****                 return ((uint8)(((uint8)(RGB_PWM_red_DEADBAND_COUNT & RGB_PWM_red_DEADBAND_COUNT_MA
 658:Generated_Source\PSoC5/RGB_PWM_red.c ****                                                                            RGB_PWM_red_DEADBAND_COU
 659:Generated_Source\PSoC5/RGB_PWM_red.c ****             #else
 660:Generated_Source\PSoC5/RGB_PWM_red.c ****                 return (RGB_PWM_red_DEADBAND_COUNT & RGB_PWM_red_DEADBAND_COUNT_MASK);
 661:Generated_Source\PSoC5/RGB_PWM_red.c ****             #endif /* (RGB_PWM_red_DEADBAND_COUNT_SHIFT) */
 662:Generated_Source\PSoC5/RGB_PWM_red.c ****         #endif /* (!RGB_PWM_red_DeadBand2_4) */
 663:Generated_Source\PSoC5/RGB_PWM_red.c ****     }
 664:Generated_Source\PSoC5/RGB_PWM_red.c **** #endif /* DeadBandUsed */
 665:Generated_Source\PSoC5/RGB_PWM_red.c **** 
 666:Generated_Source\PSoC5/RGB_PWM_red.c **** #if (RGB_PWM_red_UseStatus || RGB_PWM_red_UsingFixedFunction)
 667:Generated_Source\PSoC5/RGB_PWM_red.c **** 
 668:Generated_Source\PSoC5/RGB_PWM_red.c **** 
 669:Generated_Source\PSoC5/RGB_PWM_red.c ****     /*******************************************************************************
 670:Generated_Source\PSoC5/RGB_PWM_red.c ****     * Function Name: RGB_PWM_red_SetInterruptMode
 671:Generated_Source\PSoC5/RGB_PWM_red.c ****     ********************************************************************************
 672:Generated_Source\PSoC5/RGB_PWM_red.c ****     *
 673:Generated_Source\PSoC5/RGB_PWM_red.c ****     * Summary:
 674:Generated_Source\PSoC5/RGB_PWM_red.c ****     *  This function configures the interrupts mask control of theinterrupt
 675:Generated_Source\PSoC5/RGB_PWM_red.c ****     *  source status register.
 676:Generated_Source\PSoC5/RGB_PWM_red.c ****     *
 677:Generated_Source\PSoC5/RGB_PWM_red.c ****     * Parameters:
 678:Generated_Source\PSoC5/RGB_PWM_red.c ****     *  uint8 interruptMode: Bit field containing the interrupt sources enabled
 679:Generated_Source\PSoC5/RGB_PWM_red.c ****     *
 680:Generated_Source\PSoC5/RGB_PWM_red.c ****     * Return:
 681:Generated_Source\PSoC5/RGB_PWM_red.c ****     *  None
 682:Generated_Source\PSoC5/RGB_PWM_red.c ****     *
 683:Generated_Source\PSoC5/RGB_PWM_red.c ****     *******************************************************************************/
 684:Generated_Source\PSoC5/RGB_PWM_red.c ****     void RGB_PWM_red_SetInterruptMode(uint8 interruptMode) 
 685:Generated_Source\PSoC5/RGB_PWM_red.c ****     {
ARM GAS  C:\Users\Reza\AppData\Local\Temp\ccHE15tZ.s 			page 18


 686:Generated_Source\PSoC5/RGB_PWM_red.c ****         CY_SET_REG8(RGB_PWM_red_STATUS_MASK_PTR, interruptMode);
 687:Generated_Source\PSoC5/RGB_PWM_red.c ****     }
 688:Generated_Source\PSoC5/RGB_PWM_red.c **** 
 689:Generated_Source\PSoC5/RGB_PWM_red.c **** 
 690:Generated_Source\PSoC5/RGB_PWM_red.c ****     /*******************************************************************************
 691:Generated_Source\PSoC5/RGB_PWM_red.c ****     * Function Name: RGB_PWM_red_ReadStatusRegister
 692:Generated_Source\PSoC5/RGB_PWM_red.c ****     ********************************************************************************
 693:Generated_Source\PSoC5/RGB_PWM_red.c ****     *
 694:Generated_Source\PSoC5/RGB_PWM_red.c ****     * Summary:
 695:Generated_Source\PSoC5/RGB_PWM_red.c ****     *  This function returns the current state of the status register.
 696:Generated_Source\PSoC5/RGB_PWM_red.c ****     *
 697:Generated_Source\PSoC5/RGB_PWM_red.c ****     * Parameters:
 698:Generated_Source\PSoC5/RGB_PWM_red.c ****     *  None
 699:Generated_Source\PSoC5/RGB_PWM_red.c ****     *
 700:Generated_Source\PSoC5/RGB_PWM_red.c ****     * Return:
 701:Generated_Source\PSoC5/RGB_PWM_red.c ****     *  uint8 : Current status register value. The status register bits are:
 702:Generated_Source\PSoC5/RGB_PWM_red.c ****     *  [7:6] : Unused(0)
 703:Generated_Source\PSoC5/RGB_PWM_red.c ****     *  [5]   : Kill event output
 704:Generated_Source\PSoC5/RGB_PWM_red.c ****     *  [4]   : FIFO not empty
 705:Generated_Source\PSoC5/RGB_PWM_red.c ****     *  [3]   : FIFO full
 706:Generated_Source\PSoC5/RGB_PWM_red.c ****     *  [2]   : Terminal count
 707:Generated_Source\PSoC5/RGB_PWM_red.c ****     *  [1]   : Compare output 2
 708:Generated_Source\PSoC5/RGB_PWM_red.c ****     *  [0]   : Compare output 1
 709:Generated_Source\PSoC5/RGB_PWM_red.c ****     *
 710:Generated_Source\PSoC5/RGB_PWM_red.c ****     *******************************************************************************/
 711:Generated_Source\PSoC5/RGB_PWM_red.c ****     uint8 RGB_PWM_red_ReadStatusRegister(void) 
 712:Generated_Source\PSoC5/RGB_PWM_red.c ****     {
 713:Generated_Source\PSoC5/RGB_PWM_red.c ****         return (CY_GET_REG8(RGB_PWM_red_STATUS_PTR));
 714:Generated_Source\PSoC5/RGB_PWM_red.c ****     }
 715:Generated_Source\PSoC5/RGB_PWM_red.c **** 
 716:Generated_Source\PSoC5/RGB_PWM_red.c **** #endif /* (RGB_PWM_red_UseStatus || RGB_PWM_red_UsingFixedFunction) */
 717:Generated_Source\PSoC5/RGB_PWM_red.c **** 
 718:Generated_Source\PSoC5/RGB_PWM_red.c **** 
 719:Generated_Source\PSoC5/RGB_PWM_red.c **** #if (RGB_PWM_red_UseControl)
 720:Generated_Source\PSoC5/RGB_PWM_red.c **** 
 721:Generated_Source\PSoC5/RGB_PWM_red.c **** 
 722:Generated_Source\PSoC5/RGB_PWM_red.c ****     /*******************************************************************************
 723:Generated_Source\PSoC5/RGB_PWM_red.c ****     * Function Name: RGB_PWM_red_ReadControlRegister
 724:Generated_Source\PSoC5/RGB_PWM_red.c ****     ********************************************************************************
 725:Generated_Source\PSoC5/RGB_PWM_red.c ****     *
 726:Generated_Source\PSoC5/RGB_PWM_red.c ****     * Summary:
 727:Generated_Source\PSoC5/RGB_PWM_red.c ****     *  Returns the current state of the control register. This API is available
 728:Generated_Source\PSoC5/RGB_PWM_red.c ****     *  only if the control register is not removed.
 729:Generated_Source\PSoC5/RGB_PWM_red.c ****     *
 730:Generated_Source\PSoC5/RGB_PWM_red.c ****     * Parameters:
 731:Generated_Source\PSoC5/RGB_PWM_red.c ****     *  None
 732:Generated_Source\PSoC5/RGB_PWM_red.c ****     *
 733:Generated_Source\PSoC5/RGB_PWM_red.c ****     * Return:
 734:Generated_Source\PSoC5/RGB_PWM_red.c ****     *  uint8 : Current control register value
 735:Generated_Source\PSoC5/RGB_PWM_red.c ****     *
 736:Generated_Source\PSoC5/RGB_PWM_red.c ****     *******************************************************************************/
 737:Generated_Source\PSoC5/RGB_PWM_red.c ****     uint8 RGB_PWM_red_ReadControlRegister(void) 
 738:Generated_Source\PSoC5/RGB_PWM_red.c ****     {
 273              		.loc 1 738 0
 274              		.cfi_startproc
 275              		@ args = 0, pretend = 0, frame = 0
 276              		@ frame_needed = 0, uses_anonymous_args = 0
ARM GAS  C:\Users\Reza\AppData\Local\Temp\ccHE15tZ.s 			page 19


 277              		@ link register save eliminated.
 739:Generated_Source\PSoC5/RGB_PWM_red.c ****         uint8 result;
 740:Generated_Source\PSoC5/RGB_PWM_red.c **** 
 741:Generated_Source\PSoC5/RGB_PWM_red.c ****         result = CY_GET_REG8(RGB_PWM_red_CONTROL_PTR);
 278              		.loc 1 741 0
 279 0000 014B     		ldr	r3, .L29
 280 0002 1878     		ldrb	r0, [r3]	@ zero_extendqisi2
 281              	.LVL10:
 742:Generated_Source\PSoC5/RGB_PWM_red.c ****         return (result);
 743:Generated_Source\PSoC5/RGB_PWM_red.c ****     }
 282              		.loc 1 743 0
 283 0004 7047     		bx	lr
 284              	.L30:
 285 0006 00BF     		.align	2
 286              	.L29:
 287 0008 7E640040 		.word	1073767550
 288              		.cfi_endproc
 289              	.LFE8:
 290              		.size	RGB_PWM_red_ReadControlRegister, .-RGB_PWM_red_ReadControlRegister
 291              		.section	.text.RGB_PWM_red_WriteControlRegister,"ax",%progbits
 292              		.align	2
 293              		.global	RGB_PWM_red_WriteControlRegister
 294              		.thumb
 295              		.thumb_func
 296              		.type	RGB_PWM_red_WriteControlRegister, %function
 297              	RGB_PWM_red_WriteControlRegister:
 298              	.LFB9:
 744:Generated_Source\PSoC5/RGB_PWM_red.c **** 
 745:Generated_Source\PSoC5/RGB_PWM_red.c **** 
 746:Generated_Source\PSoC5/RGB_PWM_red.c ****     /*******************************************************************************
 747:Generated_Source\PSoC5/RGB_PWM_red.c ****     * Function Name: RGB_PWM_red_WriteControlRegister
 748:Generated_Source\PSoC5/RGB_PWM_red.c ****     ********************************************************************************
 749:Generated_Source\PSoC5/RGB_PWM_red.c ****     *
 750:Generated_Source\PSoC5/RGB_PWM_red.c ****     * Summary:
 751:Generated_Source\PSoC5/RGB_PWM_red.c ****     *  Sets the bit field of the control register. This API is available only if
 752:Generated_Source\PSoC5/RGB_PWM_red.c ****     *  the control register is not removed.
 753:Generated_Source\PSoC5/RGB_PWM_red.c ****     *
 754:Generated_Source\PSoC5/RGB_PWM_red.c ****     * Parameters:
 755:Generated_Source\PSoC5/RGB_PWM_red.c ****     *  uint8 control: Control register bit field, The status register bits are:
 756:Generated_Source\PSoC5/RGB_PWM_red.c ****     *  [7]   : PWM Enable
 757:Generated_Source\PSoC5/RGB_PWM_red.c ****     *  [6]   : Reset
 758:Generated_Source\PSoC5/RGB_PWM_red.c ****     *  [5:3] : Compare Mode2
 759:Generated_Source\PSoC5/RGB_PWM_red.c ****     *  [2:0] : Compare Mode2
 760:Generated_Source\PSoC5/RGB_PWM_red.c ****     *
 761:Generated_Source\PSoC5/RGB_PWM_red.c ****     * Return:
 762:Generated_Source\PSoC5/RGB_PWM_red.c ****     *  None
 763:Generated_Source\PSoC5/RGB_PWM_red.c ****     *
 764:Generated_Source\PSoC5/RGB_PWM_red.c ****     *******************************************************************************/
 765:Generated_Source\PSoC5/RGB_PWM_red.c ****     void RGB_PWM_red_WriteControlRegister(uint8 control) 
 766:Generated_Source\PSoC5/RGB_PWM_red.c ****     {
 299              		.loc 1 766 0
 300              		.cfi_startproc
 301              		@ args = 0, pretend = 0, frame = 0
 302              		@ frame_needed = 0, uses_anonymous_args = 0
 303              		@ link register save eliminated.
 304              	.LVL11:
 767:Generated_Source\PSoC5/RGB_PWM_red.c ****         CY_SET_REG8(RGB_PWM_red_CONTROL_PTR, control);
ARM GAS  C:\Users\Reza\AppData\Local\Temp\ccHE15tZ.s 			page 20


 305              		.loc 1 767 0
 306 0000 014B     		ldr	r3, .L32
 307 0002 1870     		strb	r0, [r3]
 308 0004 7047     		bx	lr
 309              	.L33:
 310 0006 00BF     		.align	2
 311              	.L32:
 312 0008 7E640040 		.word	1073767550
 313              		.cfi_endproc
 314              	.LFE9:
 315              		.size	RGB_PWM_red_WriteControlRegister, .-RGB_PWM_red_WriteControlRegister
 316              		.section	.text.RGB_PWM_red_ReadCapture,"ax",%progbits
 317              		.align	2
 318              		.global	RGB_PWM_red_ReadCapture
 319              		.thumb
 320              		.thumb_func
 321              		.type	RGB_PWM_red_ReadCapture, %function
 322              	RGB_PWM_red_ReadCapture:
 323              	.LFB10:
 768:Generated_Source\PSoC5/RGB_PWM_red.c ****     }
 769:Generated_Source\PSoC5/RGB_PWM_red.c **** 
 770:Generated_Source\PSoC5/RGB_PWM_red.c **** #endif /* (RGB_PWM_red_UseControl) */
 771:Generated_Source\PSoC5/RGB_PWM_red.c **** 
 772:Generated_Source\PSoC5/RGB_PWM_red.c **** 
 773:Generated_Source\PSoC5/RGB_PWM_red.c **** #if (!RGB_PWM_red_UsingFixedFunction)
 774:Generated_Source\PSoC5/RGB_PWM_red.c **** 
 775:Generated_Source\PSoC5/RGB_PWM_red.c **** 
 776:Generated_Source\PSoC5/RGB_PWM_red.c ****     /*******************************************************************************
 777:Generated_Source\PSoC5/RGB_PWM_red.c ****     * Function Name: RGB_PWM_red_ReadCapture
 778:Generated_Source\PSoC5/RGB_PWM_red.c ****     ********************************************************************************
 779:Generated_Source\PSoC5/RGB_PWM_red.c ****     *
 780:Generated_Source\PSoC5/RGB_PWM_red.c ****     * Summary:
 781:Generated_Source\PSoC5/RGB_PWM_red.c ****     *  Reads the capture value from the capture FIFO.
 782:Generated_Source\PSoC5/RGB_PWM_red.c ****     *
 783:Generated_Source\PSoC5/RGB_PWM_red.c ****     * Parameters:
 784:Generated_Source\PSoC5/RGB_PWM_red.c ****     *  None
 785:Generated_Source\PSoC5/RGB_PWM_red.c ****     *
 786:Generated_Source\PSoC5/RGB_PWM_red.c ****     * Return:
 787:Generated_Source\PSoC5/RGB_PWM_red.c ****     *  uint8/uint16: The current capture value
 788:Generated_Source\PSoC5/RGB_PWM_red.c ****     *
 789:Generated_Source\PSoC5/RGB_PWM_red.c ****     *******************************************************************************/
 790:Generated_Source\PSoC5/RGB_PWM_red.c ****     uint8 RGB_PWM_red_ReadCapture(void) 
 791:Generated_Source\PSoC5/RGB_PWM_red.c ****     {
 324              		.loc 1 791 0
 325              		.cfi_startproc
 326              		@ args = 0, pretend = 0, frame = 0
 327              		@ frame_needed = 0, uses_anonymous_args = 0
 328              		@ link register save eliminated.
 792:Generated_Source\PSoC5/RGB_PWM_red.c ****         return (CY_GET_REG8(RGB_PWM_red_CAPTURE_LSB_PTR));
 329              		.loc 1 792 0
 330 0000 014B     		ldr	r3, .L35
 331 0002 1878     		ldrb	r0, [r3]	@ zero_extendqisi2
 793:Generated_Source\PSoC5/RGB_PWM_red.c ****     }
 332              		.loc 1 793 0
 333 0004 7047     		bx	lr
 334              	.L36:
 335 0006 00BF     		.align	2
ARM GAS  C:\Users\Reza\AppData\Local\Temp\ccHE15tZ.s 			page 21


 336              	.L35:
 337 0008 5F640040 		.word	1073767519
 338              		.cfi_endproc
 339              	.LFE10:
 340              		.size	RGB_PWM_red_ReadCapture, .-RGB_PWM_red_ReadCapture
 341              		.section	.text.RGB_PWM_red_ReadCompare,"ax",%progbits
 342              		.align	2
 343              		.global	RGB_PWM_red_ReadCompare
 344              		.thumb
 345              		.thumb_func
 346              		.type	RGB_PWM_red_ReadCompare, %function
 347              	RGB_PWM_red_ReadCompare:
 348              	.LFB11:
 794:Generated_Source\PSoC5/RGB_PWM_red.c **** 
 795:Generated_Source\PSoC5/RGB_PWM_red.c **** #endif /* (!RGB_PWM_red_UsingFixedFunction) */
 796:Generated_Source\PSoC5/RGB_PWM_red.c **** 
 797:Generated_Source\PSoC5/RGB_PWM_red.c **** 
 798:Generated_Source\PSoC5/RGB_PWM_red.c **** #if (RGB_PWM_red_UseOneCompareMode)
 799:Generated_Source\PSoC5/RGB_PWM_red.c **** 
 800:Generated_Source\PSoC5/RGB_PWM_red.c **** 
 801:Generated_Source\PSoC5/RGB_PWM_red.c ****     /*******************************************************************************
 802:Generated_Source\PSoC5/RGB_PWM_red.c ****     * Function Name: RGB_PWM_red_ReadCompare
 803:Generated_Source\PSoC5/RGB_PWM_red.c ****     ********************************************************************************
 804:Generated_Source\PSoC5/RGB_PWM_red.c ****     *
 805:Generated_Source\PSoC5/RGB_PWM_red.c ****     * Summary:
 806:Generated_Source\PSoC5/RGB_PWM_red.c ****     *  Reads the compare value for the compare output when the PWM Mode parameter is
 807:Generated_Source\PSoC5/RGB_PWM_red.c ****     *  set to Dither mode, Center Aligned mode, or One Output mode.
 808:Generated_Source\PSoC5/RGB_PWM_red.c ****     *
 809:Generated_Source\PSoC5/RGB_PWM_red.c ****     * Parameters:
 810:Generated_Source\PSoC5/RGB_PWM_red.c ****     *  None
 811:Generated_Source\PSoC5/RGB_PWM_red.c ****     *
 812:Generated_Source\PSoC5/RGB_PWM_red.c ****     * Return:
 813:Generated_Source\PSoC5/RGB_PWM_red.c ****     *  uint8/uint16: Current compare value
 814:Generated_Source\PSoC5/RGB_PWM_red.c ****     *
 815:Generated_Source\PSoC5/RGB_PWM_red.c ****     *******************************************************************************/
 816:Generated_Source\PSoC5/RGB_PWM_red.c ****     uint8 RGB_PWM_red_ReadCompare(void) 
 817:Generated_Source\PSoC5/RGB_PWM_red.c ****     {
 349              		.loc 1 817 0
 350              		.cfi_startproc
 351              		@ args = 0, pretend = 0, frame = 0
 352              		@ frame_needed = 0, uses_anonymous_args = 0
 353              		@ link register save eliminated.
 818:Generated_Source\PSoC5/RGB_PWM_red.c ****         #if(RGB_PWM_red_UsingFixedFunction)
 819:Generated_Source\PSoC5/RGB_PWM_red.c ****             return ((uint8)CY_GET_REG16(RGB_PWM_red_COMPARE1_LSB_PTR));
 820:Generated_Source\PSoC5/RGB_PWM_red.c ****         #else
 821:Generated_Source\PSoC5/RGB_PWM_red.c ****             return (CY_GET_REG8(RGB_PWM_red_COMPARE1_LSB_PTR));
 354              		.loc 1 821 0
 355 0000 014B     		ldr	r3, .L38
 356 0002 1878     		ldrb	r0, [r3]	@ zero_extendqisi2
 822:Generated_Source\PSoC5/RGB_PWM_red.c ****         #endif /* (RGB_PWM_red_UsingFixedFunction) */
 823:Generated_Source\PSoC5/RGB_PWM_red.c ****     }
 357              		.loc 1 823 0
 358 0004 7047     		bx	lr
 359              	.L39:
 360 0006 00BF     		.align	2
 361              	.L38:
 362 0008 2F640040 		.word	1073767471
ARM GAS  C:\Users\Reza\AppData\Local\Temp\ccHE15tZ.s 			page 22


 363              		.cfi_endproc
 364              	.LFE11:
 365              		.size	RGB_PWM_red_ReadCompare, .-RGB_PWM_red_ReadCompare
 366              		.section	.text.RGB_PWM_red_ReadPeriod,"ax",%progbits
 367              		.align	2
 368              		.global	RGB_PWM_red_ReadPeriod
 369              		.thumb
 370              		.thumb_func
 371              		.type	RGB_PWM_red_ReadPeriod, %function
 372              	RGB_PWM_red_ReadPeriod:
 373              	.LFB12:
 824:Generated_Source\PSoC5/RGB_PWM_red.c **** 
 825:Generated_Source\PSoC5/RGB_PWM_red.c **** #else
 826:Generated_Source\PSoC5/RGB_PWM_red.c **** 
 827:Generated_Source\PSoC5/RGB_PWM_red.c **** 
 828:Generated_Source\PSoC5/RGB_PWM_red.c ****     /*******************************************************************************
 829:Generated_Source\PSoC5/RGB_PWM_red.c ****     * Function Name: RGB_PWM_red_ReadCompare1
 830:Generated_Source\PSoC5/RGB_PWM_red.c ****     ********************************************************************************
 831:Generated_Source\PSoC5/RGB_PWM_red.c ****     *
 832:Generated_Source\PSoC5/RGB_PWM_red.c ****     * Summary:
 833:Generated_Source\PSoC5/RGB_PWM_red.c ****     *  Reads the compare value for the compare1 output.
 834:Generated_Source\PSoC5/RGB_PWM_red.c ****     *
 835:Generated_Source\PSoC5/RGB_PWM_red.c ****     * Parameters:
 836:Generated_Source\PSoC5/RGB_PWM_red.c ****     *  None
 837:Generated_Source\PSoC5/RGB_PWM_red.c ****     *
 838:Generated_Source\PSoC5/RGB_PWM_red.c ****     * Return:
 839:Generated_Source\PSoC5/RGB_PWM_red.c ****     *  uint8/uint16: Current compare value.
 840:Generated_Source\PSoC5/RGB_PWM_red.c ****     *
 841:Generated_Source\PSoC5/RGB_PWM_red.c ****     *******************************************************************************/
 842:Generated_Source\PSoC5/RGB_PWM_red.c ****     uint8 RGB_PWM_red_ReadCompare1(void) 
 843:Generated_Source\PSoC5/RGB_PWM_red.c ****     {
 844:Generated_Source\PSoC5/RGB_PWM_red.c ****         return (CY_GET_REG8(RGB_PWM_red_COMPARE1_LSB_PTR));
 845:Generated_Source\PSoC5/RGB_PWM_red.c ****     }
 846:Generated_Source\PSoC5/RGB_PWM_red.c **** 
 847:Generated_Source\PSoC5/RGB_PWM_red.c **** 
 848:Generated_Source\PSoC5/RGB_PWM_red.c ****     /*******************************************************************************
 849:Generated_Source\PSoC5/RGB_PWM_red.c ****     * Function Name: RGB_PWM_red_ReadCompare2
 850:Generated_Source\PSoC5/RGB_PWM_red.c ****     ********************************************************************************
 851:Generated_Source\PSoC5/RGB_PWM_red.c ****     *
 852:Generated_Source\PSoC5/RGB_PWM_red.c ****     * Summary:
 853:Generated_Source\PSoC5/RGB_PWM_red.c ****     *  Reads the compare value for the compare2 output.
 854:Generated_Source\PSoC5/RGB_PWM_red.c ****     *
 855:Generated_Source\PSoC5/RGB_PWM_red.c ****     * Parameters:
 856:Generated_Source\PSoC5/RGB_PWM_red.c ****     *  None
 857:Generated_Source\PSoC5/RGB_PWM_red.c ****     *
 858:Generated_Source\PSoC5/RGB_PWM_red.c ****     * Return:
 859:Generated_Source\PSoC5/RGB_PWM_red.c ****     *  uint8/uint16: Current compare value.
 860:Generated_Source\PSoC5/RGB_PWM_red.c ****     *
 861:Generated_Source\PSoC5/RGB_PWM_red.c ****     *******************************************************************************/
 862:Generated_Source\PSoC5/RGB_PWM_red.c ****     uint8 RGB_PWM_red_ReadCompare2(void) 
 863:Generated_Source\PSoC5/RGB_PWM_red.c ****     {
 864:Generated_Source\PSoC5/RGB_PWM_red.c ****         return (CY_GET_REG8(RGB_PWM_red_COMPARE2_LSB_PTR));
 865:Generated_Source\PSoC5/RGB_PWM_red.c ****     }
 866:Generated_Source\PSoC5/RGB_PWM_red.c **** 
 867:Generated_Source\PSoC5/RGB_PWM_red.c **** #endif /* (RGB_PWM_red_UseOneCompareMode) */
 868:Generated_Source\PSoC5/RGB_PWM_red.c **** 
 869:Generated_Source\PSoC5/RGB_PWM_red.c **** 
ARM GAS  C:\Users\Reza\AppData\Local\Temp\ccHE15tZ.s 			page 23


 870:Generated_Source\PSoC5/RGB_PWM_red.c **** /*******************************************************************************
 871:Generated_Source\PSoC5/RGB_PWM_red.c **** * Function Name: RGB_PWM_red_ReadPeriod
 872:Generated_Source\PSoC5/RGB_PWM_red.c **** ********************************************************************************
 873:Generated_Source\PSoC5/RGB_PWM_red.c **** *
 874:Generated_Source\PSoC5/RGB_PWM_red.c **** * Summary:
 875:Generated_Source\PSoC5/RGB_PWM_red.c **** *  Reads the period value used by the PWM hardware.
 876:Generated_Source\PSoC5/RGB_PWM_red.c **** *
 877:Generated_Source\PSoC5/RGB_PWM_red.c **** * Parameters:
 878:Generated_Source\PSoC5/RGB_PWM_red.c **** *  None
 879:Generated_Source\PSoC5/RGB_PWM_red.c **** *
 880:Generated_Source\PSoC5/RGB_PWM_red.c **** * Return:
 881:Generated_Source\PSoC5/RGB_PWM_red.c **** *  uint8/16: Period value
 882:Generated_Source\PSoC5/RGB_PWM_red.c **** *
 883:Generated_Source\PSoC5/RGB_PWM_red.c **** *******************************************************************************/
 884:Generated_Source\PSoC5/RGB_PWM_red.c **** uint8 RGB_PWM_red_ReadPeriod(void) 
 885:Generated_Source\PSoC5/RGB_PWM_red.c **** {
 374              		.loc 1 885 0
 375              		.cfi_startproc
 376              		@ args = 0, pretend = 0, frame = 0
 377              		@ frame_needed = 0, uses_anonymous_args = 0
 378              		@ link register save eliminated.
 886:Generated_Source\PSoC5/RGB_PWM_red.c ****     #if(RGB_PWM_red_UsingFixedFunction)
 887:Generated_Source\PSoC5/RGB_PWM_red.c ****         return ((uint8)CY_GET_REG16(RGB_PWM_red_PERIOD_LSB_PTR));
 888:Generated_Source\PSoC5/RGB_PWM_red.c ****     #else
 889:Generated_Source\PSoC5/RGB_PWM_red.c ****         return (CY_GET_REG8(RGB_PWM_red_PERIOD_LSB_PTR));
 379              		.loc 1 889 0
 380 0000 014B     		ldr	r3, .L41
 381 0002 1878     		ldrb	r0, [r3]	@ zero_extendqisi2
 890:Generated_Source\PSoC5/RGB_PWM_red.c ****     #endif /* (RGB_PWM_red_UsingFixedFunction) */
 891:Generated_Source\PSoC5/RGB_PWM_red.c **** }
 382              		.loc 1 891 0
 383 0004 7047     		bx	lr
 384              	.L42:
 385 0006 00BF     		.align	2
 386              	.L41:
 387 0008 4F640040 		.word	1073767503
 388              		.cfi_endproc
 389              	.LFE12:
 390              		.size	RGB_PWM_red_ReadPeriod, .-RGB_PWM_red_ReadPeriod
 391              		.global	RGB_PWM_red_initVar
 392              		.bss
 393              		.set	.LANCHOR0,. + 0
 394              		.type	RGB_PWM_red_initVar, %object
 395              		.size	RGB_PWM_red_initVar, 1
 396              	RGB_PWM_red_initVar:
 397 0000 00       		.space	1
 398              		.text
 399              	.Letext0:
 400              		.file 2 "Generated_Source\\PSoC5\\cytypes.h"