ARM GAS  C:\Users\Reza\AppData\Local\Temp\ccPLDLHj.s 			page 1


   1              		.syntax unified
   2              		.cpu cortex-m3
   3              		.fpu softvfp
   4              		.eabi_attribute 20, 1
   5              		.eabi_attribute 21, 1
   6              		.eabi_attribute 23, 3
   7              		.eabi_attribute 24, 1
   8              		.eabi_attribute 25, 1
   9              		.eabi_attribute 26, 1
  10              		.eabi_attribute 30, 1
  11              		.eabi_attribute 34, 1
  12              		.eabi_attribute 18, 4
  13              		.thumb
  14              		.syntax unified
  15              		.file	"rte.c"
  16              		.text
  17              	.Ltext0:
  18              		.cfi_sections	.debug_frame
  19              		.section	.text.RTE_ProcessCyclicTable,"ax",%progbits
  20              		.align	2
  21              		.global	RTE_ProcessCyclicTable
  22              		.thumb
  23              		.thumb_func
  24              		.type	RTE_ProcessCyclicTable, %function
  25              	RTE_ProcessCyclicTable:
  26              	.LFB114:
  27              		.file 1 "source\\rte\\rte.c"
   1:source\rte/rte.c **** /**
   2:source\rte/rte.c **** * \file rte.c
   3:source\rte/rte.c **** * \author P. Fromm
   4:source\rte/rte.c **** * \date 8.12.18
   5:source\rte/rte.c **** *
   6:source\rte/rte.c **** * \brief Runnable dispatcher
   7:source\rte/rte.c **** *
   8:source\rte/rte.c **** * \copyright Copyright ©2016
   9:source\rte/rte.c **** * Department of electrical engineering and information technology, Hochschule Darmstadt - Universit
  10:source\rte/rte.c **** * Permission to use, copy, modify, and distribute this software and its documentation for education
  11:source\rte/rte.c **** * (unless permitted by h_da) and official h_da projects, is hereby granted for enrolled students of
  12:source\rte/rte.c **** * this paragraph and the following paragraph appear in all copies, modifications, and distributions
  13:source\rte/rte.c **** * Contact Prof.Dr.-Ing. Peter Fromm, peter.fromm@h-da.de, Birkenweg 8 64295 Darmstadt - GERMANY for
  14:source\rte/rte.c **** *
  15:source\rte/rte.c **** * \warning This software is a PROTOTYPE version and is not designed or intended for use in producti
  16:source\rte/rte.c **** * The user represents and warrants that it will NOT use or redistribute the Software for such purpo
  17:source\rte/rte.c **** * This prototype is for research purposes only. This software is provided "AS IS," without a warran
  18:source\rte/rte.c **** */
  19:source\rte/rte.c **** 
  20:source\rte/rte.c **** /*****************************************************************************/
  21:source\rte/rte.c **** /* Include files                                                             */
  22:source\rte/rte.c **** /*****************************************************************************/
  23:source\rte/rte.c **** #include "rte.h"
  24:source\rte/rte.c **** #include "led.h"
  25:source\rte/rte.c **** #include "logging.h"
  26:source\rte/rte.c **** #include "watchdog.h"
  27:source\rte/rte.c **** 
  28:source\rte/rte.c **** /*****************************************************************************/
  29:source\rte/rte.c **** /* Local pre-processor symbols/macros ('#define')                            */
  30:source\rte/rte.c **** /*****************************************************************************/
ARM GAS  C:\Users\Reza\AppData\Local\Temp\ccPLDLHj.s 			page 2


  31:source\rte/rte.c **** 
  32:source\rte/rte.c **** /*****************************************************************************/
  33:source\rte/rte.c **** /* Global variable definitions (declared in header file with 'extern')       */
  34:source\rte/rte.c **** /*****************************************************************************/
  35:source\rte/rte.c **** 
  36:source\rte/rte.c **** /*****************************************************************************/
  37:source\rte/rte.c **** /* Local type definitions ('typedef')                                        */
  38:source\rte/rte.c **** /*****************************************************************************/
  39:source\rte/rte.c **** 
  40:source\rte/rte.c **** /*****************************************************************************/
  41:source\rte/rte.c **** /* Local variable definitions ('static')                                     */
  42:source\rte/rte.c **** /*****************************************************************************/
  43:source\rte/rte.c **** 
  44:source\rte/rte.c **** 
  45:source\rte/rte.c **** 
  46:source\rte/rte.c **** /*****************************************************************************/
  47:source\rte/rte.c **** /* Local function prototypes ('static')                                      */
  48:source\rte/rte.c **** /*****************************************************************************/
  49:source\rte/rte.c **** 
  50:source\rte/rte.c **** 
  51:source\rte/rte.c **** /*****************************************************************************/
  52:source\rte/rte.c **** /* Function implementation - global ('extern') and local ('static')          */
  53:source\rte/rte.c **** /*****************************************************************************/
  54:source\rte/rte.c **** 
  55:source\rte/rte.c **** /**
  56:source\rte/rte.c ****  * Will call all cyclic runnables when due
  57:source\rte/rte.c ****  * \param RTE_cyclicTable_t const *const table : [IN] table to be processed
  58:source\rte/rte.c ****  * \param uint16_t tableSize : [IN] table size
  59:source\rte/rte.c ****  * \param uint16_t time : [IN] time elapsed since last call in ms
  60:source\rte/rte.c ****  * \return RC_SUCCESS if all ok, error code otherwise
  61:source\rte/rte.c ****  */
  62:source\rte/rte.c **** RC_t RTE_ProcessCyclicTable(RTE_cyclicTable_t const *const table, uint16_t tableSize, uint16_t time
  63:source\rte/rte.c **** {
  28              		.loc 1 63 0
  29              		.cfi_startproc
  30              		@ args = 0, pretend = 0, frame = 0
  31              		@ frame_needed = 0, uses_anonymous_args = 0
  32              	.LVL0:
  33 0000 F8B5     		push	{r3, r4, r5, r6, r7, lr}
  34              		.cfi_def_cfa_offset 24
  35              		.cfi_offset 3, -24
  36              		.cfi_offset 4, -20
  37              		.cfi_offset 5, -16
  38              		.cfi_offset 6, -12
  39              		.cfi_offset 7, -8
  40              		.cfi_offset 14, -4
  41 0002 0546     		mov	r5, r0
  42 0004 0E46     		mov	r6, r1
  43 0006 1746     		mov	r7, r2
  44              	.LVL1:
  45              	.LBB2:
  64:source\rte/rte.c ****     static uint32_t totalTime = 0;
  65:source\rte/rte.c ****     char data[20];
  66:source\rte/rte.c ****     
  67:source\rte/rte.c ****     
  68:source\rte/rte.c ****     for (uint16_t i = 0; i < tableSize; i++)
  46              		.loc 1 68 0
ARM GAS  C:\Users\Reza\AppData\Local\Temp\ccPLDLHj.s 			page 3


  47 0008 0024     		movs	r4, #0
  48 000a 11E0     		b	.L2
  49              	.LVL2:
  50              	.L4:
  69:source\rte/rte.c ****     {
  70:source\rte/rte.c ****         
  71:source\rte/rte.c ****         if (0 == (totalTime % table[i].cycleTime))
  51              		.loc 1 71 0
  52 000c 05EBC403 		add	r3, r5, r4, lsl #3
  53 0010 9B88     		ldrh	r3, [r3, #4]
  54 0012 0F4A     		ldr	r2, .L6
  55 0014 1168     		ldr	r1, [r2]
  56 0016 B1FBF3F2 		udiv	r2, r1, r3
  57 001a 03FB1213 		mls	r3, r3, r2, r1
  58 001e 2BB9     		cbnz	r3, .L3
  72:source\rte/rte.c ****         {
  73:source\rte/rte.c ****             //LOG_I("RTE_ProcessCyclicTable","");
  74:source\rte/rte.c ****             //itoa(totalTime, data, 10);
  75:source\rte/rte.c ****             //UART_LOG_PutString("totalTime: ");
  76:source\rte/rte.c ****             //UART_LOG_PutString(data);
  77:source\rte/rte.c ****             //UART_LOG_PutString("\n");
  78:source\rte/rte.c ****             table[i].run();
  59              		.loc 1 78 0
  60 0020 55F83430 		ldr	r3, [r5, r4, lsl #3]
  61 0024 9847     		blx	r3
  62              	.LVL3:
  79:source\rte/rte.c ****             //WD_Trigger();
  80:source\rte/rte.c ****             LED_Toggle(LED_RED);
  63              		.loc 1 80 0
  64 0026 0020     		movs	r0, #0
  65 0028 FFF7FEFF 		bl	LED_Toggle
  66              	.LVL4:
  67              	.L3:
  68:source\rte/rte.c ****     {
  68              		.loc 1 68 0 discriminator 2
  69 002c 0134     		adds	r4, r4, #1
  70              	.LVL5:
  71 002e A4B2     		uxth	r4, r4
  72              	.LVL6:
  73              	.L2:
  68:source\rte/rte.c ****     {
  74              		.loc 1 68 0 is_stmt 0 discriminator 1
  75 0030 B442     		cmp	r4, r6
  76 0032 EBD3     		bcc	.L4
  77              	.LBE2:
  81:source\rte/rte.c ****             
  82:source\rte/rte.c ****         }
  83:source\rte/rte.c ****     }
  84:source\rte/rte.c ****     
  85:source\rte/rte.c ****     totalTime += time;
  78              		.loc 1 85 0 is_stmt 1
  79 0034 064A     		ldr	r2, .L6
  80 0036 1368     		ldr	r3, [r2]
  81 0038 1F44     		add	r7, r7, r3
  86:source\rte/rte.c ****     //LED_Set(LED_ALL,LED_OFF);
  87:source\rte/rte.c ****     totalTime %= 100000;    
  82              		.loc 1 87 0
ARM GAS  C:\Users\Reza\AppData\Local\Temp\ccPLDLHj.s 			page 4


  83 003a 7B09     		lsrs	r3, r7, #5
  84 003c 0549     		ldr	r1, .L6+4
  85 003e A1FB0313 		umull	r1, r3, r1, r3
  86 0042 DB09     		lsrs	r3, r3, #7
  87 0044 0449     		ldr	r1, .L6+8
  88 0046 01FB1377 		mls	r7, r1, r3, r7
  89 004a 1760     		str	r7, [r2]
  88:source\rte/rte.c **** }
  90              		.loc 1 88 0
  91 004c F8BD     		pop	{r3, r4, r5, r6, r7, pc}
  92              	.LVL7:
  93              	.L7:
  94 004e 00BF     		.align	2
  95              	.L6:
  96 0050 00000000 		.word	.LANCHOR0
  97 0054 C55A7C0A 		.word	175921861
  98 0058 A0860100 		.word	100000
  99              		.cfi_endproc
 100              	.LFE114:
 101              		.size	RTE_ProcessCyclicTable, .-RTE_ProcessCyclicTable
 102              		.section	.text.RTE_ProcessEventTable,"ax",%progbits
 103              		.align	2
 104              		.global	RTE_ProcessEventTable
 105              		.thumb
 106              		.thumb_func
 107              		.type	RTE_ProcessEventTable, %function
 108              	RTE_ProcessEventTable:
 109              	.LFB115:
  89:source\rte/rte.c ****     
  90:source\rte/rte.c **** /**
  91:source\rte/rte.c ****  * Will call all event runnables when due
  92:source\rte/rte.c ****  * \param RTE_eventTable_t const *const table : [IN] table to be processed
  93:source\rte/rte.c ****  * \param uint16_t tableSize : [IN] table size
  94:source\rte/rte.c ****  * \param EventMaskType ev : [IN] event mask to be processed
  95:source\rte/rte.c ****  * \return RC_SUCCESS if all ok, error code otherwise
  96:source\rte/rte.c ****  */
  97:source\rte/rte.c **** RC_t RTE_ProcessEventTable(RTE_eventTable_t const *const table, uint16_t tableSize, EventMaskType e
  98:source\rte/rte.c **** {
 110              		.loc 1 98 0
 111              		.cfi_startproc
 112              		@ args = 0, pretend = 0, frame = 0
 113              		@ frame_needed = 0, uses_anonymous_args = 0
 114              	.LVL8:
 115 0000 F8B5     		push	{r3, r4, r5, r6, r7, lr}
 116              		.cfi_def_cfa_offset 24
 117              		.cfi_offset 3, -24
 118              		.cfi_offset 4, -20
 119              		.cfi_offset 5, -16
 120              		.cfi_offset 6, -12
 121              		.cfi_offset 7, -8
 122              		.cfi_offset 14, -4
 123 0002 0546     		mov	r5, r0
 124 0004 0E46     		mov	r6, r1
 125 0006 1746     		mov	r7, r2
 126              	.LVL9:
 127              	.LBB3:
  99:source\rte/rte.c ****     char data[20];
ARM GAS  C:\Users\Reza\AppData\Local\Temp\ccPLDLHj.s 			page 5


 100:source\rte/rte.c ****     for (uint16_t i = 0; i < tableSize; i++)
 128              		.loc 1 100 0
 129 0008 0024     		movs	r4, #0
 130 000a 09E0     		b	.L9
 131              	.LVL10:
 132              	.L11:
 101:source\rte/rte.c ****     {
 102:source\rte/rte.c ****         //itoa(i, data, 10);
 103:source\rte/rte.c ****             //UART_LOG_PutString("i: ");
 104:source\rte/rte.c ****             //UART_LOG_PutString(data);
 105:source\rte/rte.c ****             //UART_LOG_PutString("\n");
 106:source\rte/rte.c ****         if (ev & table[i].event)
 133              		.loc 1 106 0
 134 000c 05EBC403 		add	r3, r5, r4, lsl #3
 135 0010 5B68     		ldr	r3, [r3, #4]
 136 0012 3B42     		tst	r3, r7
 137 0014 02D0     		beq	.L10
 107:source\rte/rte.c ****         {
 108:source\rte/rte.c ****             //LOG_I("ev & table[i].event","");
 109:source\rte/rte.c ****             table[i].run();
 138              		.loc 1 109 0
 139 0016 55F83430 		ldr	r3, [r5, r4, lsl #3]
 140 001a 9847     		blx	r3
 141              	.LVL11:
 142              	.L10:
 100:source\rte/rte.c ****     {
 143              		.loc 1 100 0 discriminator 2
 144 001c 0134     		adds	r4, r4, #1
 145              	.LVL12:
 146 001e A4B2     		uxth	r4, r4
 147              	.LVL13:
 148              	.L9:
 100:source\rte/rte.c ****     {
 149              		.loc 1 100 0 is_stmt 0 discriminator 1
 150 0020 B442     		cmp	r4, r6
 151 0022 F3D3     		bcc	.L11
 152              	.LBE3:
 110:source\rte/rte.c ****             //WD_Trigger();
 111:source\rte/rte.c ****         }
 112:source\rte/rte.c ****     }
 113:source\rte/rte.c ****     
 114:source\rte/rte.c **** }...
 153              		.loc 1 114 0 is_stmt 1
 154 0024 F8BD     		pop	{r3, r4, r5, r6, r7, pc}
 155              		.cfi_endproc
 156              	.LFE115:
 157              		.size	RTE_ProcessEventTable, .-RTE_ProcessEventTable
 158              		.comm	runnables,1,4
 159 0026 00BF     		.bss
 160              		.align	2
 161              		.set	.LANCHOR0,. + 0
 162              		.type	totalTime.7835, %object
 163              		.size	totalTime.7835, 4
 164              	totalTime.7835:
 165 0000 00000000 		.space	4
 166              		.text
 167              	.Letext0:
ARM GAS  C:\Users\Reza\AppData\Local\Temp\ccPLDLHj.s 			page 6


 168              		.file 2 "c:\\program files (x86)\\cypress\\psoc creator\\4.4\\psoc creator\\import\\gnu\\arm\\5.4.
 169              		.file 3 "c:\\program files (x86)\\cypress\\psoc creator\\4.4\\psoc creator\\import\\gnu\\arm\\5.4.
 170              		.file 4 "Generated_Source\\PSoC5/ErikaOS_1_common_ee_types.inc"
 171              		.file 5 "Generated_Source\\PSoC5/ErikaOS_1_cortex_mx_ee_cpu.inc"
 172              		.file 6 "Generated_Source\\PSoC5/ErikaOS_1_ee_oo_common.inc"
 173              		.file 7 ".\\source\\bsw/global.h"
 174              		.file 8 "source\\rte\\rte.h"
 175              		.file 9 ".\\source\\bsw\\watchdog/watchdog.h"
 176              		.file 10 "Generated_Source\\PSoC5/ErikaOS_1_ee_oo_intfunc.inc"
 177              		.file 11 "Generated_Source\\PSoC5/ErikaOS_1_cortex_mx_ee_context.inc"
 178              		.file 12 "Generated_Source\\PSoC5/ErikaOS_1_common_ee_primitives.inc"
 179              		.file 13 "Generated_Source\\PSoC5/core_cm3.h"
 180              		.file 14 ".\\source\\bsw\\labboard/led.h"