ARM GAS  C:\Users\Reza\AppData\Local\Temp\ccKIBcRQ.s 			page 1


   1              		.syntax unified
   2              		.cpu cortex-m3
   3              		.fpu softvfp
   4              		.eabi_attribute 20, 1
   5              		.eabi_attribute 21, 1
   6              		.eabi_attribute 23, 3
   7              		.eabi_attribute 24, 1
   8              		.eabi_attribute 25, 1
   9              		.eabi_attribute 26, 1
  10              		.eabi_attribute 30, 1
  11              		.eabi_attribute 34, 1
  12              		.eabi_attribute 18, 4
  13              		.thumb
  14              		.syntax unified
  15              		.file	"swc_control.c"
  16              		.text
  17              	.Ltext0:
  18              		.cfi_sections	.debug_frame
  19              		.section	.text.run_calculateControl,"ax",%progbits
  20              		.align	2
  21              		.global	run_calculateControl
  22              		.thumb
  23              		.thumb_func
  24              		.type	run_calculateControl, %function
  25              	run_calculateControl:
  26              	.LFB150:
  27              		.file 1 "source\\asw\\swc_control.c"
   1:source\asw/swc_control.c **** /**************************************************
   2:source\asw/swc_control.c ****  ** Software Component SWC_Control
   3:source\asw/swc_control.c ****  ** autogenerated by H-DA RTE Generator
   4:source\asw/swc_control.c ****  **************************************************/
   5:source\asw/swc_control.c **** 
   6:source\asw/swc_control.c **** #include "rte.h"
   7:source\asw/swc_control.c **** #include "rte_signalpool.h"
   8:source\asw/swc_control.c **** 
   9:source\asw/swc_control.c **** #include "logging.h"
  10:source\asw/swc_control.c **** 
  11:source\asw/swc_control.c **** #include "swc_control.h"
  12:source\asw/swc_control.c **** #include "led.h"
  13:source\asw/swc_control.c **** #include "ugui.h"
  14:source\asw/swc_control.c **** #include "watchdog.h"
  15:source\asw/swc_control.c **** 
  16:source\asw/swc_control.c **** 
  17:source\asw/swc_control.c **** 
  18:source\asw/swc_control.c **** 
  19:source\asw/swc_control.c **** /* Runnables */
  20:source\asw/swc_control.c **** 
  21:source\asw/swc_control.c **** void run_calculateControl()
  22:source\asw/swc_control.c **** {
  28              		.loc 1 22 0
  29              		.cfi_startproc
  30              		@ args = 0, pretend = 0, frame = 24
  31              		@ frame_needed = 0, uses_anonymous_args = 0
  32 0000 70B5     		push	{r4, r5, r6, lr}
  33              		.cfi_def_cfa_offset 16
  34              		.cfi_offset 4, -16
  35              		.cfi_offset 5, -12
ARM GAS  C:\Users\Reza\AppData\Local\Temp\ccKIBcRQ.s 			page 2


  36              		.cfi_offset 6, -8
  37              		.cfi_offset 14, -4
  38 0002 86B0     		sub	sp, sp, #24
  39              		.cfi_def_cfa_offset 40
  40              	.LVL0:
  41              	.LBB16:
  42              	.LBB17:
  43              		.file 2 ".\\source\\rte/adc_signal.h"
   1:.\source\rte/adc_signal.h **** /**
   2:.\source\rte/adc_signal.h **** *  file    ADC_signal.h
   3:.\source\rte/adc_signal.h **** *
   4:.\source\rte/adc_signal.h **** *  brief   signal base class for signal adc
   5:.\source\rte/adc_signal.h **** *
   6:.\source\rte/adc_signal.h **** *  author  Autogenerated, Peter Fromm       <peter.fromm@h-da.de>
   7:.\source\rte/adc_signal.h **** *
   8:.\source\rte/adc_signal.h **** *
   9:.\source\rte/adc_signal.h **** */
  10:.\source\rte/adc_signal.h **** 
  11:.\source\rte/adc_signal.h **** #ifndef ADC_SIGNAL_H_INCLUDED
  12:.\source\rte/adc_signal.h **** #define ADC_SIGNAL_H_INCLUDED
  13:.\source\rte/adc_signal.h **** 
  14:.\source\rte/adc_signal.h **** /*================================================[ configuration  ]===============================
  15:.\source\rte/adc_signal.h **** #define ADC_DATATRIGGER ON
  16:.\source\rte/adc_signal.h **** 
  17:.\source\rte/adc_signal.h **** /*================================================[ public includes  ]=============================
  18:.\source\rte/adc_signal.h **** #include "global.h"
  19:.\source\rte/adc_signal.h **** #include "project.h"
  20:.\source\rte/adc_signal.h **** #include "rte.h"
  21:.\source\rte/adc_signal.h **** 
  22:.\source\rte/adc_signal.h **** #include "adc_type.h"
  23:.\source\rte/adc_signal.h **** #include "logging.h"
  24:.\source\rte/adc_signal.h **** 
  25:.\source\rte/adc_signal.h **** 
  26:.\source\rte/adc_signal.h **** /**************************************************************************************************
  27:.\source\rte/adc_signal.h **** /* The driver API block																						*/
  28:.\source\rte/adc_signal.h **** /**************************************************************************************************
  29:.\source\rte/adc_signal.h ****                                                                                                    
  30:.\source\rte/adc_signal.h **** /**
  31:.\source\rte/adc_signal.h ****  *  Definition of function types for driver interfaces.
  32:.\source\rte/adc_signal.h ****  *  I-Port
  33:.\source\rte/adc_signal.h ****  */
  34:.\source\rte/adc_signal.h **** typedef RC_t (*ADC_driverIn_t)(ADC_data_t * const);
  35:.\source\rte/adc_signal.h **** 
  36:.\source\rte/adc_signal.h **** /**
  37:.\source\rte/adc_signal.h ****  *  Definition of function types for driver interfaces.
  38:.\source\rte/adc_signal.h ****  *  O-Port
  39:.\source\rte/adc_signal.h ****  */
  40:.\source\rte/adc_signal.h **** typedef RC_t (*ADC_driverOut_t)( const ADC_data_t * const);
  41:.\source\rte/adc_signal.h **** 
  42:.\source\rte/adc_signal.h **** 
  43:.\source\rte/adc_signal.h **** /**************************************************************************************************
  44:.\source\rte/adc_signal.h **** /* The signal configuration API block																				*/
  45:.\source\rte/adc_signal.h **** /**************************************************************************************************
  46:.\source\rte/adc_signal.h **** 
  47:.\source\rte/adc_signal.h **** /**
  48:.\source\rte/adc_signal.h ****  * Instances of the struct ADC_cfg_t represent the signal object configuration.
  49:.\source\rte/adc_signal.h ****  */
ARM GAS  C:\Users\Reza\AppData\Local\Temp\ccKIBcRQ.s 			page 3


  50:.\source\rte/adc_signal.h **** struct ADC_cfg_s
  51:.\source\rte/adc_signal.h **** {
  52:.\source\rte/adc_signal.h ****     /**
  53:.\source\rte/adc_signal.h ****      * Function pointer to the input driver
  54:.\source\rte/adc_signal.h ****      */
  55:.\source\rte/adc_signal.h ****     ADC_driverIn_t const inDriver;
  56:.\source\rte/adc_signal.h **** 
  57:.\source\rte/adc_signal.h ****     /**
  58:.\source\rte/adc_signal.h ****      * Function pointer to the output driver table
  59:.\source\rte/adc_signal.h ****      */
  60:.\source\rte/adc_signal.h ****    ADC_driverOut_t const outDriver;
  61:.\source\rte/adc_signal.h ****    
  62:.\source\rte/adc_signal.h ****     /**
  63:.\source\rte/adc_signal.h ****      * Event onUpdate
  64:.\source\rte/adc_signal.h ****      */
  65:.\source\rte/adc_signal.h ****     EventMaskType const evOnUpdate;
  66:.\source\rte/adc_signal.h **** 
  67:.\source\rte/adc_signal.h **** };                                                                                                 
  68:.\source\rte/adc_signal.h **** typedef const struct ADC_cfg_s ADC_cfg_t;
  69:.\source\rte/adc_signal.h ****                               
  70:.\source\rte/adc_signal.h **** /**************************************************************************************************
  71:.\source\rte/adc_signal.h **** /* The data interface block																							*/
  72:.\source\rte/adc_signal.h **** /**************************************************************************************************
  73:.\source\rte/adc_signal.h **** 
  74:.\source\rte/adc_signal.h ****                                                                                                    
  75:.\source\rte/adc_signal.h **** 							  
  76:.\source\rte/adc_signal.h **** /**
  77:.\source\rte/adc_signal.h ****  * Instances of the struct ADC_t represent the signal objects.
  78:.\source\rte/adc_signal.h ****  * A signal object contains the current application value 'value' as well as relevant meta data.
  79:.\source\rte/adc_signal.h ****  */
  80:.\source\rte/adc_signal.h **** struct ADC_s
  81:.\source\rte/adc_signal.h **** {                                                                                                  
  82:.\source\rte/adc_signal.h **** 
  83:.\source\rte/adc_signal.h **** 	/**
  84:.\source\rte/adc_signal.h **** 	 * Data buffer for the application value
  85:.\source\rte/adc_signal.h **** 	 */
  86:.\source\rte/adc_signal.h ****     ADC_data_t value;
  87:.\source\rte/adc_signal.h **** 
  88:.\source\rte/adc_signal.h ****     /**
  89:.\source\rte/adc_signal.h ****      * Current signal status
  90:.\source\rte/adc_signal.h ****      */
  91:.\source\rte/adc_signal.h ****     RTE_signalStatus_t status;
  92:.\source\rte/adc_signal.h **** 
  93:.\source\rte/adc_signal.h ****     /**
  94:.\source\rte/adc_signal.h ****      * Current age of the signal (in calling cycles)
  95:.\source\rte/adc_signal.h ****      */
  96:.\source\rte/adc_signal.h ****     uint32_t age;
  97:.\source\rte/adc_signal.h **** 
  98:.\source\rte/adc_signal.h ****     /**
  99:.\source\rte/adc_signal.h ****      * Pointer to the signal configuration
 100:.\source\rte/adc_signal.h ****      */
 101:.\source\rte/adc_signal.h **** 	const ADC_cfg_t * const    pSigCfg;
 102:.\source\rte/adc_signal.h **** 
 103:.\source\rte/adc_signal.h **** };                                                                                                 
 104:.\source\rte/adc_signal.h **** typedef struct ADC_s ADC_t;
 105:.\source\rte/adc_signal.h **** 
 106:.\source\rte/adc_signal.h **** /**************************************************************************************************
ARM GAS  C:\Users\Reza\AppData\Local\Temp\ccKIBcRQ.s 			page 4


 107:.\source\rte/adc_signal.h **** /* Signal initialisation   																							*/
 108:.\source\rte/adc_signal.h **** /**************************************************************************************************
 109:.\source\rte/adc_signal.h **** 
 110:.\source\rte/adc_signal.h **** /**
 111:.\source\rte/adc_signal.h ****  * Initializes a signal instance with a passed init value.
 112:.\source\rte/adc_signal.h ****  * Depending on the configured conversion or scaling function the raw_value will be calculated.
 113:.\source\rte/adc_signal.h ****  * Signal status will change from RTE_SIGNALSTATUS_STARTUP to RTE_SIGNALSTATUS_INITIALIZED.
 114:.\source\rte/adc_signal.h ****  *
 115:.\source\rte/adc_signal.h ****  * @param  ADC_t * const signal: Pointer to the signal object which will be initialised
 116:.\source\rte/adc_signal.h ****  * @param const adc_data_t * const value: Pointer to initial value of the application data
 117:.\source\rte/adc_signal.h ****  * @return RC_t: standard return code, currently only RC_SUCCESS
 118:.\source\rte/adc_signal.h ****  *
 119:.\source\rte/adc_signal.h ****  **/
 120:.\source\rte/adc_signal.h **** inline RC_t RTE_ADC_init( ADC_t * const signal, const ADC_data_t * const value )
 121:.\source\rte/adc_signal.h **** {                                                                                                  
 122:.\source\rte/adc_signal.h **** 
 123:.\source\rte/adc_signal.h ****    RC_t ret = RC_SUCCESS;
 124:.\source\rte/adc_signal.h **** 
 125:.\source\rte/adc_signal.h ****    //Set value and raw value
 126:.\source\rte/adc_signal.h ****    signal->value  = *value;
 127:.\source\rte/adc_signal.h ****    signal->age    = 0;
 128:.\source\rte/adc_signal.h ****    signal->status = RTE_SIGNALSTATUS_INITIALIZED;
 129:.\source\rte/adc_signal.h **** 
 130:.\source\rte/adc_signal.h ****    return ret;
 131:.\source\rte/adc_signal.h **** }
 132:.\source\rte/adc_signal.h **** 
 133:.\source\rte/adc_signal.h **** /**************************************************************************************************
 134:.\source\rte/adc_signal.h **** /* Status and timeout control																						*/
 135:.\source\rte/adc_signal.h **** /**************************************************************************************************
 136:.\source\rte/adc_signal.h **** 
 137:.\source\rte/adc_signal.h **** /**
 138:.\source\rte/adc_signal.h ****  *  Returns the current signal status of the passed signal instance.
 139:.\source\rte/adc_signal.h ****  *
 140:.\source\rte/adc_signal.h ****  * @param  ADC_t * const signal: Pointer to the signal object
 141:.\source\rte/adc_signal.h ****  * @return  sig_status_t: The current signal status
 142:.\source\rte/adc_signal.h ****  *
 143:.\source\rte/adc_signal.h ****  **/
 144:.\source\rte/adc_signal.h **** inline RTE_signalStatus_t RTE_ADC_getStatus( const ADC_t * const signal )
 145:.\source\rte/adc_signal.h **** {
 146:.\source\rte/adc_signal.h ****    return signal->status;
 147:.\source\rte/adc_signal.h **** }
 148:.\source\rte/adc_signal.h **** 
 149:.\source\rte/adc_signal.h **** 
 150:.\source\rte/adc_signal.h **** /**
 151:.\source\rte/adc_signal.h ****  *  Sets a new signal status of the passed signal instance by passing the new status.
 152:.\source\rte/adc_signal.h ****  *
 153:.\source\rte/adc_signal.h ****  * @param  ADC_t * const signal: Pointer to the signal object
 154:.\source\rte/adc_signal.h ****  * @param  const sig_status_t status: New signal status
 155:.\source\rte/adc_signal.h ****  * @return RC_t: standard return code, currently only RC_SUCCESS
 156:.\source\rte/adc_signal.h ****  *
 157:.\source\rte/adc_signal.h ****  */
 158:.\source\rte/adc_signal.h **** inline RC_t RTE_ADC_setStatus( ADC_t * const signal, const RTE_signalStatus_t status )
 159:.\source\rte/adc_signal.h **** {
 160:.\source\rte/adc_signal.h ****    signal->status = status;
 161:.\source\rte/adc_signal.h ****    return RC_SUCCESS;
 162:.\source\rte/adc_signal.h **** }
 163:.\source\rte/adc_signal.h **** 
ARM GAS  C:\Users\Reza\AppData\Local\Temp\ccKIBcRQ.s 			page 5


 164:.\source\rte/adc_signal.h **** 
 165:.\source\rte/adc_signal.h **** /**
 166:.\source\rte/adc_signal.h ****  * Returns the count of refreshing trials (refresh, set or set_raw) that failed.
 167:.\source\rte/adc_signal.h ****  * Prerquisite: The signal is refreshed cyclically
 168:.\source\rte/adc_signal.h ****  *
 169:.\source\rte/adc_signal.h ****  * @param  ADC_t * const signal: Pointer to the signal object
 170:.\source\rte/adc_signal.h ****  * @return uint32_t: Number of cycles since the signal has been updated for the last time
 171:.\source\rte/adc_signal.h ****  */
 172:.\source\rte/adc_signal.h **** inline uint32_t RTE_ADC_getAge( const ADC_t * const signal )
 173:.\source\rte/adc_signal.h **** {
 174:.\source\rte/adc_signal.h ****    return signal->age;
 175:.\source\rte/adc_signal.h **** }
 176:.\source\rte/adc_signal.h **** 
 177:.\source\rte/adc_signal.h **** /**
 178:.\source\rte/adc_signal.h ****  * Should be called by application or driver if no new value can be provided.
 179:.\source\rte/adc_signal.h ****  * @param  ADC_t * const signal: Pointer to the signal object
 180:.\source\rte/adc_signal.h ****  * @param uint32_t increment: incrementvalue, typically in [ms]
 181:.\source\rte/adc_signal.h ****  * @return void
 182:.\source\rte/adc_signal.h ****  */
 183:.\source\rte/adc_signal.h **** inline void RTE_ADC_incAge(  ADC_t * const signal , uint32_t increment)
 184:.\source\rte/adc_signal.h **** {
 185:.\source\rte/adc_signal.h **** 	   //Hack....
 186:.\source\rte/adc_signal.h **** 	   if ( 0xFFFF0000 > (signal->age + increment) )
 187:.\source\rte/adc_signal.h **** 	   {
 188:.\source\rte/adc_signal.h **** 	      signal->age += increment;
 189:.\source\rte/adc_signal.h **** 	   }
 190:.\source\rte/adc_signal.h **** }
 191:.\source\rte/adc_signal.h **** 
 192:.\source\rte/adc_signal.h **** 
 193:.\source\rte/adc_signal.h **** /**************************************************************************************************
 194:.\source\rte/adc_signal.h **** /* Application Data read/write Interface																			*/
 195:.\source\rte/adc_signal.h **** /**************************************************************************************************
 196:.\source\rte/adc_signal.h **** 
 197:.\source\rte/adc_signal.h **** /**
 198:.\source\rte/adc_signal.h ****  * Returns the current application value of the passed signal instance.
 199:.\source\rte/adc_signal.h ****  *
 200:.\source\rte/adc_signal.h ****  * @param  ADC_t * const signal: Pointer to the signal object
 201:.\source\rte/adc_signal.h ****  * @return adc_data_t: current value of the application data buffer
 202:.\source\rte/adc_signal.h ****  *
 203:.\source\rte/adc_signal.h ****  **/
 204:.\source\rte/adc_signal.h **** inline ADC_data_t RTE_ADC_get( const ADC_t * const signal )
 205:.\source\rte/adc_signal.h **** {                                                                                                  
 206:.\source\rte/adc_signal.h ****    return signal->value;                                                                           
  44              		.loc 2 206 0
  45 0004 264B     		ldr	r3, .L5
  46 0006 1B88     		ldrh	r3, [r3]
  47 0008 ADF81430 		strh	r3, [sp, #20]	@ movhi
  48 000c ADF80C30 		strh	r3, [sp, #12]	@ movhi
  49              	.LVL1:
  50              	.LBE17:
  51              	.LBE16:
  23:source\asw/swc_control.c ****     //LOG_I("run_calculateControl","");
  24:source\asw/swc_control.c ****     PWM_data_t enginvalue;
  25:source\asw/swc_control.c ****     GPIO_data_t brakevalue;
  26:source\asw/swc_control.c ****     LCD_data_t lcdvalue;
  27:source\asw/swc_control.c ****     char str[100];
  28:source\asw/swc_control.c ****     sint8_t x=0;
ARM GAS  C:\Users\Reza\AppData\Local\Temp\ccKIBcRQ.s 			page 6


  29:source\asw/swc_control.c ****     uint8_t xx=0;
  30:source\asw/swc_control.c ****     ADC_data_t joystickvalue = RTE_ADC_get(&JOYSTICK_signal);
  31:source\asw/swc_control.c ****     //SetRelAlarm(alrm_error,1,1);
  32:source\asw/swc_control.c ****     if ( joystickvalue.m_x > 0)
  52              		.loc 1 32 0
  53 0010 5BB2     		sxtb	r3, r3
  54 0012 002B     		cmp	r3, #0
  55 0014 21DD     		ble	.L2
  33:source\asw/swc_control.c ****     {
  34:source\asw/swc_control.c ****         enginvalue.m_pwm = (uint8_t) (2 * joystickvalue.m_x);
  56              		.loc 1 34 0
  57 0016 5B00     		lsls	r3, r3, #1
  58 0018 DCB2     		uxtb	r4, r3
  59              	.LVL2:
  60              	.LBB18:
  61              	.LBB19:
  62              		.file 3 ".\\source\\rte/pwm_signal.h"
   1:.\source\rte/pwm_signal.h **** /**
   2:.\source\rte/pwm_signal.h **** *  file    PWM_signal.h
   3:.\source\rte/pwm_signal.h **** *
   4:.\source\rte/pwm_signal.h **** *  brief   signal base class for signal pwm
   5:.\source\rte/pwm_signal.h **** *
   6:.\source\rte/pwm_signal.h **** *  author  Autogenerated, Peter Fromm       <peter.fromm@h-da.de>
   7:.\source\rte/pwm_signal.h **** *
   8:.\source\rte/pwm_signal.h **** *
   9:.\source\rte/pwm_signal.h **** */
  10:.\source\rte/pwm_signal.h **** 
  11:.\source\rte/pwm_signal.h **** #ifndef PWM_SIGNAL_H_INCLUDED
  12:.\source\rte/pwm_signal.h **** #define PWM_SIGNAL_H_INCLUDED
  13:.\source\rte/pwm_signal.h **** 
  14:.\source\rte/pwm_signal.h **** /*================================================[ configuration  ]===============================
  15:.\source\rte/pwm_signal.h **** #define PWM_DATATRIGGER ON
  16:.\source\rte/pwm_signal.h **** 
  17:.\source\rte/pwm_signal.h **** /*================================================[ public includes  ]=============================
  18:.\source\rte/pwm_signal.h **** #include "global.h"
  19:.\source\rte/pwm_signal.h **** #include "project.h"
  20:.\source\rte/pwm_signal.h **** #include "rte.h"
  21:.\source\rte/pwm_signal.h **** 
  22:.\source\rte/pwm_signal.h **** #include "pwm_type.h"
  23:.\source\rte/pwm_signal.h **** 
  24:.\source\rte/pwm_signal.h **** 
  25:.\source\rte/pwm_signal.h **** /**************************************************************************************************
  26:.\source\rte/pwm_signal.h **** /* The driver API block																						*/
  27:.\source\rte/pwm_signal.h **** /**************************************************************************************************
  28:.\source\rte/pwm_signal.h ****                                                                                                    
  29:.\source\rte/pwm_signal.h **** /**
  30:.\source\rte/pwm_signal.h ****  *  Definition of function types for driver interfaces.
  31:.\source\rte/pwm_signal.h ****  *  I-Port
  32:.\source\rte/pwm_signal.h ****  */
  33:.\source\rte/pwm_signal.h **** typedef RC_t (*PWM_driverIn_t)(PWM_data_t * const);
  34:.\source\rte/pwm_signal.h **** 
  35:.\source\rte/pwm_signal.h **** /**
  36:.\source\rte/pwm_signal.h ****  *  Definition of function types for driver interfaces.
  37:.\source\rte/pwm_signal.h ****  *  O-Port
  38:.\source\rte/pwm_signal.h ****  */
  39:.\source\rte/pwm_signal.h **** typedef RC_t (*PWM_driverOut_t)( const PWM_data_t * const);
  40:.\source\rte/pwm_signal.h **** 
ARM GAS  C:\Users\Reza\AppData\Local\Temp\ccKIBcRQ.s 			page 7


  41:.\source\rte/pwm_signal.h **** 
  42:.\source\rte/pwm_signal.h **** /**************************************************************************************************
  43:.\source\rte/pwm_signal.h **** /* The signal configuration API block																				*/
  44:.\source\rte/pwm_signal.h **** /**************************************************************************************************
  45:.\source\rte/pwm_signal.h **** 
  46:.\source\rte/pwm_signal.h **** /**
  47:.\source\rte/pwm_signal.h ****  * Instances of the struct PWM_cfg_t represent the signal object configuration.
  48:.\source\rte/pwm_signal.h ****  */
  49:.\source\rte/pwm_signal.h **** struct PWM_cfg_s
  50:.\source\rte/pwm_signal.h **** {
  51:.\source\rte/pwm_signal.h ****     /**
  52:.\source\rte/pwm_signal.h ****      * Function pointer to the input driver
  53:.\source\rte/pwm_signal.h ****      */
  54:.\source\rte/pwm_signal.h ****     PWM_driverIn_t const inDriver;
  55:.\source\rte/pwm_signal.h **** 
  56:.\source\rte/pwm_signal.h ****     /**
  57:.\source\rte/pwm_signal.h ****      * Function pointer to the output driver table
  58:.\source\rte/pwm_signal.h ****      */
  59:.\source\rte/pwm_signal.h ****    PWM_driverOut_t const outDriver;
  60:.\source\rte/pwm_signal.h ****    
  61:.\source\rte/pwm_signal.h ****     /**
  62:.\source\rte/pwm_signal.h ****      * Event onUpdate
  63:.\source\rte/pwm_signal.h ****      */
  64:.\source\rte/pwm_signal.h ****     EventMaskType const evOnUpdate;
  65:.\source\rte/pwm_signal.h **** 
  66:.\source\rte/pwm_signal.h **** };                                                                                                 
  67:.\source\rte/pwm_signal.h **** typedef const struct PWM_cfg_s PWM_cfg_t;
  68:.\source\rte/pwm_signal.h ****                               
  69:.\source\rte/pwm_signal.h **** /**************************************************************************************************
  70:.\source\rte/pwm_signal.h **** /* The data interface block																							*/
  71:.\source\rte/pwm_signal.h **** /**************************************************************************************************
  72:.\source\rte/pwm_signal.h **** 
  73:.\source\rte/pwm_signal.h ****                                                                                                    
  74:.\source\rte/pwm_signal.h **** 							  
  75:.\source\rte/pwm_signal.h **** /**
  76:.\source\rte/pwm_signal.h ****  * Instances of the struct PWM_t represent the signal objects.
  77:.\source\rte/pwm_signal.h ****  * A signal object contains the current application value 'value' as well as relevant meta data.
  78:.\source\rte/pwm_signal.h ****  */
  79:.\source\rte/pwm_signal.h **** struct PWM_s
  80:.\source\rte/pwm_signal.h **** {                                                                                                  
  81:.\source\rte/pwm_signal.h **** 
  82:.\source\rte/pwm_signal.h **** 	/**
  83:.\source\rte/pwm_signal.h **** 	 * Data buffer for the application value
  84:.\source\rte/pwm_signal.h **** 	 */
  85:.\source\rte/pwm_signal.h ****     PWM_data_t value;
  86:.\source\rte/pwm_signal.h **** 
  87:.\source\rte/pwm_signal.h ****     /**
  88:.\source\rte/pwm_signal.h ****      * Current signal status
  89:.\source\rte/pwm_signal.h ****      */
  90:.\source\rte/pwm_signal.h ****     RTE_signalStatus_t status;
  91:.\source\rte/pwm_signal.h **** 
  92:.\source\rte/pwm_signal.h ****     /**
  93:.\source\rte/pwm_signal.h ****      * Current age of the signal (in calling cycles)
  94:.\source\rte/pwm_signal.h ****      */
  95:.\source\rte/pwm_signal.h ****     uint32_t age;
  96:.\source\rte/pwm_signal.h **** 
  97:.\source\rte/pwm_signal.h ****     /**
ARM GAS  C:\Users\Reza\AppData\Local\Temp\ccKIBcRQ.s 			page 8


  98:.\source\rte/pwm_signal.h ****      * Pointer to the signal configuration
  99:.\source\rte/pwm_signal.h ****      */
 100:.\source\rte/pwm_signal.h **** 	const PWM_cfg_t * const    pSigCfg;
 101:.\source\rte/pwm_signal.h **** 
 102:.\source\rte/pwm_signal.h **** };                                                                                                 
 103:.\source\rte/pwm_signal.h **** typedef struct PWM_s PWM_t;
 104:.\source\rte/pwm_signal.h **** 
 105:.\source\rte/pwm_signal.h **** /**************************************************************************************************
 106:.\source\rte/pwm_signal.h **** /* Signal initialisation   																							*/
 107:.\source\rte/pwm_signal.h **** /**************************************************************************************************
 108:.\source\rte/pwm_signal.h **** 
 109:.\source\rte/pwm_signal.h **** /**
 110:.\source\rte/pwm_signal.h ****  * Initializes a signal instance with a passed init value.
 111:.\source\rte/pwm_signal.h ****  * Depending on the configured conversion or scaling function the raw_value will be calculated.
 112:.\source\rte/pwm_signal.h ****  * Signal status will change from RTE_SIGNALSTATUS_STARTUP to RTE_SIGNALSTATUS_INITIALIZED.
 113:.\source\rte/pwm_signal.h ****  *
 114:.\source\rte/pwm_signal.h ****  * @param  PWM_t * const signal: Pointer to the signal object which will be initialised
 115:.\source\rte/pwm_signal.h ****  * @param const pwm_data_t * const value: Pointer to initial value of the application data
 116:.\source\rte/pwm_signal.h ****  * @return RC_t: standard return code, currently only RC_SUCCESS
 117:.\source\rte/pwm_signal.h ****  *
 118:.\source\rte/pwm_signal.h ****  **/
 119:.\source\rte/pwm_signal.h **** inline RC_t RTE_PWM_init( PWM_t * const signal, const PWM_data_t * const value )
 120:.\source\rte/pwm_signal.h **** {                                                                                                  
 121:.\source\rte/pwm_signal.h **** 
 122:.\source\rte/pwm_signal.h ****    RC_t ret = RC_SUCCESS;
 123:.\source\rte/pwm_signal.h **** 
 124:.\source\rte/pwm_signal.h ****    //Set value and raw value
 125:.\source\rte/pwm_signal.h ****    signal->value  = *value;
 126:.\source\rte/pwm_signal.h ****    signal->age    = 0;
 127:.\source\rte/pwm_signal.h ****    signal->status = RTE_SIGNALSTATUS_INITIALIZED;
 128:.\source\rte/pwm_signal.h **** 
 129:.\source\rte/pwm_signal.h ****    return ret;
 130:.\source\rte/pwm_signal.h **** }
 131:.\source\rte/pwm_signal.h **** 
 132:.\source\rte/pwm_signal.h **** /**************************************************************************************************
 133:.\source\rte/pwm_signal.h **** /* Status and timeout control																						*/
 134:.\source\rte/pwm_signal.h **** /**************************************************************************************************
 135:.\source\rte/pwm_signal.h **** 
 136:.\source\rte/pwm_signal.h **** /**
 137:.\source\rte/pwm_signal.h ****  *  Returns the current signal status of the passed signal instance.
 138:.\source\rte/pwm_signal.h ****  *
 139:.\source\rte/pwm_signal.h ****  * @param  PWM_t * const signal: Pointer to the signal object
 140:.\source\rte/pwm_signal.h ****  * @return  sig_status_t: The current signal status
 141:.\source\rte/pwm_signal.h ****  *
 142:.\source\rte/pwm_signal.h ****  **/
 143:.\source\rte/pwm_signal.h **** inline RTE_signalStatus_t RTE_PWM_getStatus( const PWM_t * const signal )
 144:.\source\rte/pwm_signal.h **** {
 145:.\source\rte/pwm_signal.h ****    return signal->status;
 146:.\source\rte/pwm_signal.h **** }
 147:.\source\rte/pwm_signal.h **** 
 148:.\source\rte/pwm_signal.h **** 
 149:.\source\rte/pwm_signal.h **** /**
 150:.\source\rte/pwm_signal.h ****  *  Sets a new signal status of the passed signal instance by passing the new status.
 151:.\source\rte/pwm_signal.h ****  *
 152:.\source\rte/pwm_signal.h ****  * @param  PWM_t * const signal: Pointer to the signal object
 153:.\source\rte/pwm_signal.h ****  * @param  const sig_status_t status: New signal status
 154:.\source\rte/pwm_signal.h ****  * @return RC_t: standard return code, currently only RC_SUCCESS
ARM GAS  C:\Users\Reza\AppData\Local\Temp\ccKIBcRQ.s 			page 9


 155:.\source\rte/pwm_signal.h ****  *
 156:.\source\rte/pwm_signal.h ****  */
 157:.\source\rte/pwm_signal.h **** inline RC_t RTE_PWM_setStatus( PWM_t * const signal, const RTE_signalStatus_t status )
 158:.\source\rte/pwm_signal.h **** {
 159:.\source\rte/pwm_signal.h ****    signal->status = status;
 160:.\source\rte/pwm_signal.h ****    return RC_SUCCESS;
 161:.\source\rte/pwm_signal.h **** }
 162:.\source\rte/pwm_signal.h **** 
 163:.\source\rte/pwm_signal.h **** 
 164:.\source\rte/pwm_signal.h **** /**
 165:.\source\rte/pwm_signal.h ****  * Returns the count of refreshing trials (refresh, set or set_raw) that failed.
 166:.\source\rte/pwm_signal.h ****  * Prerquisite: The signal is refreshed cyclically
 167:.\source\rte/pwm_signal.h ****  *
 168:.\source\rte/pwm_signal.h ****  * @param  PWM_t * const signal: Pointer to the signal object
 169:.\source\rte/pwm_signal.h ****  * @return uint32_t: Number of cycles since the signal has been updated for the last time
 170:.\source\rte/pwm_signal.h ****  */
 171:.\source\rte/pwm_signal.h **** inline uint32_t RTE_PWM_getAge( const PWM_t * const signal )
 172:.\source\rte/pwm_signal.h **** {
 173:.\source\rte/pwm_signal.h ****    return signal->age;
 174:.\source\rte/pwm_signal.h **** }
 175:.\source\rte/pwm_signal.h **** 
 176:.\source\rte/pwm_signal.h **** /**
 177:.\source\rte/pwm_signal.h ****  * Should be called by application or driver if no new value can be provided.
 178:.\source\rte/pwm_signal.h ****  * @param  PWM_t * const signal: Pointer to the signal object
 179:.\source\rte/pwm_signal.h ****  * @param uint32_t increment: incrementvalue, typically in [ms]
 180:.\source\rte/pwm_signal.h ****  * @return void
 181:.\source\rte/pwm_signal.h ****  */
 182:.\source\rte/pwm_signal.h **** inline void RTE_PWM_incAge(  PWM_t * const signal , uint32_t increment)
 183:.\source\rte/pwm_signal.h **** {
 184:.\source\rte/pwm_signal.h **** 	   //Hack....
 185:.\source\rte/pwm_signal.h **** 	   if ( 0xFFFF0000 > (signal->age + increment) )
 186:.\source\rte/pwm_signal.h **** 	   {
 187:.\source\rte/pwm_signal.h **** 	      signal->age += increment;
 188:.\source\rte/pwm_signal.h **** 	   }
 189:.\source\rte/pwm_signal.h **** }
 190:.\source\rte/pwm_signal.h **** 
 191:.\source\rte/pwm_signal.h **** 
 192:.\source\rte/pwm_signal.h **** /**************************************************************************************************
 193:.\source\rte/pwm_signal.h **** /* Application Data read/write Interface																			*/
 194:.\source\rte/pwm_signal.h **** /**************************************************************************************************
 195:.\source\rte/pwm_signal.h **** 
 196:.\source\rte/pwm_signal.h **** /**
 197:.\source\rte/pwm_signal.h ****  * Returns the current application value of the passed signal instance.
 198:.\source\rte/pwm_signal.h ****  *
 199:.\source\rte/pwm_signal.h ****  * @param  PWM_t * const signal: Pointer to the signal object
 200:.\source\rte/pwm_signal.h ****  * @return pwm_data_t: current value of the application data buffer
 201:.\source\rte/pwm_signal.h ****  *
 202:.\source\rte/pwm_signal.h ****  **/
 203:.\source\rte/pwm_signal.h **** inline PWM_data_t RTE_PWM_get( const PWM_t * const signal )
 204:.\source\rte/pwm_signal.h **** {                                                                                                  
 205:.\source\rte/pwm_signal.h ****    return signal->value;                                                                           
 206:.\source\rte/pwm_signal.h **** }                                                                                                  
 207:.\source\rte/pwm_signal.h ****                                                                                                    
 208:.\source\rte/pwm_signal.h ****                                                                                                    
 209:.\source\rte/pwm_signal.h ****                                                                                                    
 210:.\source\rte/pwm_signal.h **** /**
 211:.\source\rte/pwm_signal.h ****  * Sets a new application value to the passed signal instance by passing the new value.
ARM GAS  C:\Users\Reza\AppData\Local\Temp\ccKIBcRQ.s 			page 10


 212:.\source\rte/pwm_signal.h ****  * The corresponding driver raw value will be calculated immediately by using the default conversio
 213:.\source\rte/pwm_signal.h ****  * signal specific scaling function.
 214:.\source\rte/pwm_signal.h ****  * The signal age will be set to 0 and the new status will be 'RTE_SIGNALSTATUS_VALID'.
 215:.\source\rte/pwm_signal.h ****  *
 216:.\source\rte/pwm_signal.h ****  * @param  PWM_t * const signal: Pointer to the signal object
 217:.\source\rte/pwm_signal.h ****  * @param  pwm_data_t const value: value for the application data buffer
 218:.\source\rte/pwm_signal.h ****  * @return RC_t: standard return code, currently only RC_SUCCESS
 219:.\source\rte/pwm_signal.h ****  *
 220:.\source\rte/pwm_signal.h ****  **/
 221:.\source\rte/pwm_signal.h **** inline RC_t RTE_PWM_set(PWM_t * const signal, const PWM_data_t value  )
 222:.\source\rte/pwm_signal.h **** {
 223:.\source\rte/pwm_signal.h **** 
 224:.\source\rte/pwm_signal.h ****    RC_t ret = RC_SUCCESS;
 225:.\source\rte/pwm_signal.h **** 
 226:.\source\rte/pwm_signal.h **** 
 227:.\source\rte/pwm_signal.h ****    //Todo: critical section
 228:.\source\rte/pwm_signal.h ****     signal->value  = value;
  63              		.loc 3 228 0
  64 001a 224B     		ldr	r3, .L5+4
  65 001c 1C70     		strb	r4, [r3]
 229:.\source\rte/pwm_signal.h **** 	signal->age    = 0;
  66              		.loc 3 229 0
  67 001e 0026     		movs	r6, #0
  68 0020 5E60     		str	r6, [r3, #4]
 230:.\source\rte/pwm_signal.h **** 	signal->status = RTE_SIGNALSTATUS_VALID;
  69              		.loc 3 230 0
  70 0022 0225     		movs	r5, #2
  71 0024 5D70     		strb	r5, [r3, #1]
 231:.\source\rte/pwm_signal.h **** 
 232:.\source\rte/pwm_signal.h **** #if PWM_DATATRIGGER == ON
 233:.\source\rte/pwm_signal.h **** 	SetEvent( tsk_EventDispatcher, signal->pSigCfg->evOnUpdate);
  72              		.loc 3 233 0
  73 0026 9B68     		ldr	r3, [r3, #8]
  74 0028 9968     		ldr	r1, [r3, #8]
  75 002a 0320     		movs	r0, #3
  76 002c FFF7FEFF 		bl	EE_oo_SetEvent
  77              	.LVL3:
  78              	.LBE19:
  79              	.LBE18:
  35:source\asw/swc_control.c ****         RTE_PWM_set(&ENGINE_signal, enginvalue);
  36:source\asw/swc_control.c ****         brakevalue.LED_Type=LED_GREEN;
  80              		.loc 1 36 0
  81 0030 8DF81050 		strb	r5, [sp, #16]
  37:source\asw/swc_control.c ****         brakevalue.LED_State=LED_OFF;
  82              		.loc 1 37 0
  83 0034 8DF81160 		strb	r6, [sp, #17]
  84              	.LVL4:
  85 0038 BDF81020 		ldrh	r2, [sp, #16]
  86 003c ADF80420 		strh	r2, [sp, #4]	@ movhi
  87              	.LVL5:
  88              	.LBB20:
  89              	.LBB21:
  90              		.file 4 ".\\source\\rte/gpio_signal.h"
   1:.\source\rte/gpio_signal.h **** /**
   2:.\source\rte/gpio_signal.h **** *  file    GPIO_signal.h
   3:.\source\rte/gpio_signal.h **** *
   4:.\source\rte/gpio_signal.h **** *  brief   signal base class for signal gpio
ARM GAS  C:\Users\Reza\AppData\Local\Temp\ccKIBcRQ.s 			page 11


   5:.\source\rte/gpio_signal.h **** *
   6:.\source\rte/gpio_signal.h **** *  author  Autogenerated, Peter Fromm       <peter.fromm@h-da.de>
   7:.\source\rte/gpio_signal.h **** *
   8:.\source\rte/gpio_signal.h **** *
   9:.\source\rte/gpio_signal.h **** */
  10:.\source\rte/gpio_signal.h **** 
  11:.\source\rte/gpio_signal.h **** #ifndef GPIO_SIGNAL_H_INCLUDED
  12:.\source\rte/gpio_signal.h **** #define GPIO_SIGNAL_H_INCLUDED
  13:.\source\rte/gpio_signal.h **** 
  14:.\source\rte/gpio_signal.h **** /*================================================[ configuration  ]===============================
  15:.\source\rte/gpio_signal.h **** #define GPIO_DATATRIGGER OFF
  16:.\source\rte/gpio_signal.h **** 
  17:.\source\rte/gpio_signal.h **** /*================================================[ public includes  ]=============================
  18:.\source\rte/gpio_signal.h **** #include "global.h"
  19:.\source\rte/gpio_signal.h **** #include "project.h"
  20:.\source\rte/gpio_signal.h **** #include "rte.h"
  21:.\source\rte/gpio_signal.h **** 
  22:.\source\rte/gpio_signal.h **** #include "gpio_type.h"
  23:.\source\rte/gpio_signal.h **** 
  24:.\source\rte/gpio_signal.h **** 
  25:.\source\rte/gpio_signal.h **** /**************************************************************************************************
  26:.\source\rte/gpio_signal.h **** /* The driver API block																						*/
  27:.\source\rte/gpio_signal.h **** /**************************************************************************************************
  28:.\source\rte/gpio_signal.h ****                                                                                                    
  29:.\source\rte/gpio_signal.h **** /**
  30:.\source\rte/gpio_signal.h ****  *  Definition of function types for driver interfaces.
  31:.\source\rte/gpio_signal.h ****  *  I-Port
  32:.\source\rte/gpio_signal.h ****  */
  33:.\source\rte/gpio_signal.h **** typedef RC_t (*GPIO_driverIn_t)(GPIO_data_t * const);
  34:.\source\rte/gpio_signal.h **** 
  35:.\source\rte/gpio_signal.h **** /**
  36:.\source\rte/gpio_signal.h ****  *  Definition of function types for driver interfaces.
  37:.\source\rte/gpio_signal.h ****  *  O-Port
  38:.\source\rte/gpio_signal.h ****  */
  39:.\source\rte/gpio_signal.h **** typedef RC_t (*GPIO_driverOut_t)( const GPIO_data_t * const);
  40:.\source\rte/gpio_signal.h **** 
  41:.\source\rte/gpio_signal.h **** 
  42:.\source\rte/gpio_signal.h **** /**************************************************************************************************
  43:.\source\rte/gpio_signal.h **** /* The signal configuration API block																				*/
  44:.\source\rte/gpio_signal.h **** /**************************************************************************************************
  45:.\source\rte/gpio_signal.h **** 
  46:.\source\rte/gpio_signal.h **** /**
  47:.\source\rte/gpio_signal.h ****  * Instances of the struct GPIO_cfg_t represent the signal object configuration.
  48:.\source\rte/gpio_signal.h ****  */
  49:.\source\rte/gpio_signal.h **** struct GPIO_cfg_s
  50:.\source\rte/gpio_signal.h **** {
  51:.\source\rte/gpio_signal.h ****     /**
  52:.\source\rte/gpio_signal.h ****      * Function pointer to the input driver
  53:.\source\rte/gpio_signal.h ****      */
  54:.\source\rte/gpio_signal.h ****     GPIO_driverIn_t const inDriver;
  55:.\source\rte/gpio_signal.h **** 
  56:.\source\rte/gpio_signal.h ****     /**
  57:.\source\rte/gpio_signal.h ****      * Function pointer to the output driver table
  58:.\source\rte/gpio_signal.h ****      */
  59:.\source\rte/gpio_signal.h ****    GPIO_driverOut_t const outDriver;
  60:.\source\rte/gpio_signal.h ****    
  61:.\source\rte/gpio_signal.h ****     /**
ARM GAS  C:\Users\Reza\AppData\Local\Temp\ccKIBcRQ.s 			page 12


  62:.\source\rte/gpio_signal.h ****      * Event onUpdate
  63:.\source\rte/gpio_signal.h ****      */
  64:.\source\rte/gpio_signal.h ****     EventMaskType const evOnUpdate;
  65:.\source\rte/gpio_signal.h **** 
  66:.\source\rte/gpio_signal.h **** };                                                                                                 
  67:.\source\rte/gpio_signal.h **** typedef const struct GPIO_cfg_s GPIO_cfg_t;
  68:.\source\rte/gpio_signal.h ****                               
  69:.\source\rte/gpio_signal.h **** /**************************************************************************************************
  70:.\source\rte/gpio_signal.h **** /* The data interface block																							*/
  71:.\source\rte/gpio_signal.h **** /**************************************************************************************************
  72:.\source\rte/gpio_signal.h **** 
  73:.\source\rte/gpio_signal.h ****                                                                                                    
  74:.\source\rte/gpio_signal.h **** 							  
  75:.\source\rte/gpio_signal.h **** /**
  76:.\source\rte/gpio_signal.h ****  * Instances of the struct GPIO_t represent the signal objects.
  77:.\source\rte/gpio_signal.h ****  * A signal object contains the current application value 'value' as well as relevant meta data.
  78:.\source\rte/gpio_signal.h ****  */
  79:.\source\rte/gpio_signal.h **** struct GPIO_s
  80:.\source\rte/gpio_signal.h **** {                                                                                                  
  81:.\source\rte/gpio_signal.h **** 
  82:.\source\rte/gpio_signal.h **** 	/**
  83:.\source\rte/gpio_signal.h **** 	 * Data buffer for the application value
  84:.\source\rte/gpio_signal.h **** 	 */
  85:.\source\rte/gpio_signal.h ****     GPIO_data_t value;
  86:.\source\rte/gpio_signal.h **** 
  87:.\source\rte/gpio_signal.h ****     /**
  88:.\source\rte/gpio_signal.h ****      * Current signal status
  89:.\source\rte/gpio_signal.h ****      */
  90:.\source\rte/gpio_signal.h ****     RTE_signalStatus_t status;
  91:.\source\rte/gpio_signal.h **** 
  92:.\source\rte/gpio_signal.h ****     /**
  93:.\source\rte/gpio_signal.h ****      * Current age of the signal (in calling cycles)
  94:.\source\rte/gpio_signal.h ****      */
  95:.\source\rte/gpio_signal.h ****     uint32_t age;
  96:.\source\rte/gpio_signal.h **** 
  97:.\source\rte/gpio_signal.h ****     /**
  98:.\source\rte/gpio_signal.h ****      * Pointer to the signal configuration
  99:.\source\rte/gpio_signal.h ****      */
 100:.\source\rte/gpio_signal.h **** 	const GPIO_cfg_t * const    pSigCfg;
 101:.\source\rte/gpio_signal.h **** 
 102:.\source\rte/gpio_signal.h **** };                                                                                                 
 103:.\source\rte/gpio_signal.h **** typedef struct GPIO_s GPIO_t;
 104:.\source\rte/gpio_signal.h **** 
 105:.\source\rte/gpio_signal.h **** /**************************************************************************************************
 106:.\source\rte/gpio_signal.h **** /* Signal initialisation   																							*/
 107:.\source\rte/gpio_signal.h **** /**************************************************************************************************
 108:.\source\rte/gpio_signal.h **** 
 109:.\source\rte/gpio_signal.h **** /**
 110:.\source\rte/gpio_signal.h ****  * Initializes a signal instance with a passed init value.
 111:.\source\rte/gpio_signal.h ****  * Depending on the configured conversion or scaling function the raw_value will be calculated.
 112:.\source\rte/gpio_signal.h ****  * Signal status will change from RTE_SIGNALSTATUS_STARTUP to RTE_SIGNALSTATUS_INITIALIZED.
 113:.\source\rte/gpio_signal.h ****  *
 114:.\source\rte/gpio_signal.h ****  * @param  GPIO_t * const signal: Pointer to the signal object which will be initialised
 115:.\source\rte/gpio_signal.h ****  * @param const gpio_data_t * const value: Pointer to initial value of the application data
 116:.\source\rte/gpio_signal.h ****  * @return RC_t: standard return code, currently only RC_SUCCESS
 117:.\source\rte/gpio_signal.h ****  *
 118:.\source\rte/gpio_signal.h ****  **/
ARM GAS  C:\Users\Reza\AppData\Local\Temp\ccKIBcRQ.s 			page 13


 119:.\source\rte/gpio_signal.h **** inline RC_t RTE_GPIO_init( GPIO_t * const signal, const GPIO_data_t * const value )
 120:.\source\rte/gpio_signal.h **** {                                                                                                  
 121:.\source\rte/gpio_signal.h **** 
 122:.\source\rte/gpio_signal.h ****    RC_t ret = RC_SUCCESS;
 123:.\source\rte/gpio_signal.h **** 
 124:.\source\rte/gpio_signal.h ****    //Set value and raw value
 125:.\source\rte/gpio_signal.h ****    signal->value  = *value;
 126:.\source\rte/gpio_signal.h ****    signal->age    = 0;
 127:.\source\rte/gpio_signal.h ****    signal->status = RTE_SIGNALSTATUS_INITIALIZED;
 128:.\source\rte/gpio_signal.h **** 
 129:.\source\rte/gpio_signal.h ****    return ret;
 130:.\source\rte/gpio_signal.h **** }
 131:.\source\rte/gpio_signal.h **** 
 132:.\source\rte/gpio_signal.h **** /**************************************************************************************************
 133:.\source\rte/gpio_signal.h **** /* Status and timeout control																						*/
 134:.\source\rte/gpio_signal.h **** /**************************************************************************************************
 135:.\source\rte/gpio_signal.h **** 
 136:.\source\rte/gpio_signal.h **** /**
 137:.\source\rte/gpio_signal.h ****  *  Returns the current signal status of the passed signal instance.
 138:.\source\rte/gpio_signal.h ****  *
 139:.\source\rte/gpio_signal.h ****  * @param  GPIO_t * const signal: Pointer to the signal object
 140:.\source\rte/gpio_signal.h ****  * @return  sig_status_t: The current signal status
 141:.\source\rte/gpio_signal.h ****  *
 142:.\source\rte/gpio_signal.h ****  **/
 143:.\source\rte/gpio_signal.h **** inline RTE_signalStatus_t RTE_GPIO_getStatus( const GPIO_t * const signal )
 144:.\source\rte/gpio_signal.h **** {
 145:.\source\rte/gpio_signal.h ****    return signal->status;
 146:.\source\rte/gpio_signal.h **** }
 147:.\source\rte/gpio_signal.h **** 
 148:.\source\rte/gpio_signal.h **** 
 149:.\source\rte/gpio_signal.h **** /**
 150:.\source\rte/gpio_signal.h ****  *  Sets a new signal status of the passed signal instance by passing the new status.
 151:.\source\rte/gpio_signal.h ****  *
 152:.\source\rte/gpio_signal.h ****  * @param  GPIO_t * const signal: Pointer to the signal object
 153:.\source\rte/gpio_signal.h ****  * @param  const sig_status_t status: New signal status
 154:.\source\rte/gpio_signal.h ****  * @return RC_t: standard return code, currently only RC_SUCCESS
 155:.\source\rte/gpio_signal.h ****  *
 156:.\source\rte/gpio_signal.h ****  */
 157:.\source\rte/gpio_signal.h **** inline RC_t RTE_GPIO_setStatus( GPIO_t * const signal, const RTE_signalStatus_t status )
 158:.\source\rte/gpio_signal.h **** {
 159:.\source\rte/gpio_signal.h ****    signal->status = status;
 160:.\source\rte/gpio_signal.h ****    return RC_SUCCESS;
 161:.\source\rte/gpio_signal.h **** }
 162:.\source\rte/gpio_signal.h **** 
 163:.\source\rte/gpio_signal.h **** 
 164:.\source\rte/gpio_signal.h **** /**
 165:.\source\rte/gpio_signal.h ****  * Returns the count of refreshing trials (refresh, set or set_raw) that failed.
 166:.\source\rte/gpio_signal.h ****  * Prerquisite: The signal is refreshed cyclically
 167:.\source\rte/gpio_signal.h ****  *
 168:.\source\rte/gpio_signal.h ****  * @param  GPIO_t * const signal: Pointer to the signal object
 169:.\source\rte/gpio_signal.h ****  * @return uint32_t: Number of cycles since the signal has been updated for the last time
 170:.\source\rte/gpio_signal.h ****  */
 171:.\source\rte/gpio_signal.h **** inline uint32_t RTE_GPIO_getAge( const GPIO_t * const signal )
 172:.\source\rte/gpio_signal.h **** {
 173:.\source\rte/gpio_signal.h ****    return signal->age;
 174:.\source\rte/gpio_signal.h **** }
 175:.\source\rte/gpio_signal.h **** 
ARM GAS  C:\Users\Reza\AppData\Local\Temp\ccKIBcRQ.s 			page 14


 176:.\source\rte/gpio_signal.h **** /**
 177:.\source\rte/gpio_signal.h ****  * Should be called by application or driver if no new value can be provided.
 178:.\source\rte/gpio_signal.h ****  * @param  GPIO_t * const signal: Pointer to the signal object
 179:.\source\rte/gpio_signal.h ****  * @param uint32_t increment: incrementvalue, typically in [ms]
 180:.\source\rte/gpio_signal.h ****  * @return void
 181:.\source\rte/gpio_signal.h ****  */
 182:.\source\rte/gpio_signal.h **** inline void RTE_GPIO_incAge(  GPIO_t * const signal , uint32_t increment)
 183:.\source\rte/gpio_signal.h **** {
 184:.\source\rte/gpio_signal.h **** 	   //Hack....
 185:.\source\rte/gpio_signal.h **** 	   if ( 0xFFFF0000 > (signal->age + increment) )
 186:.\source\rte/gpio_signal.h **** 	   {
 187:.\source\rte/gpio_signal.h **** 	      signal->age += increment;
 188:.\source\rte/gpio_signal.h **** 	   }
 189:.\source\rte/gpio_signal.h **** }
 190:.\source\rte/gpio_signal.h **** 
 191:.\source\rte/gpio_signal.h **** 
 192:.\source\rte/gpio_signal.h **** /**************************************************************************************************
 193:.\source\rte/gpio_signal.h **** /* Application Data read/write Interface																			*/
 194:.\source\rte/gpio_signal.h **** /**************************************************************************************************
 195:.\source\rte/gpio_signal.h **** 
 196:.\source\rte/gpio_signal.h **** /**
 197:.\source\rte/gpio_signal.h ****  * Returns the current application value of the passed signal instance.
 198:.\source\rte/gpio_signal.h ****  *
 199:.\source\rte/gpio_signal.h ****  * @param  GPIO_t * const signal: Pointer to the signal object
 200:.\source\rte/gpio_signal.h ****  * @return gpio_data_t: current value of the application data buffer
 201:.\source\rte/gpio_signal.h ****  *
 202:.\source\rte/gpio_signal.h ****  **/
 203:.\source\rte/gpio_signal.h **** inline GPIO_data_t RTE_GPIO_get( const GPIO_t * const signal )
 204:.\source\rte/gpio_signal.h **** {                                                                                                  
 205:.\source\rte/gpio_signal.h ****    return signal->value;                                                                           
 206:.\source\rte/gpio_signal.h **** }                                                                                                  
 207:.\source\rte/gpio_signal.h ****                                                                                                    
 208:.\source\rte/gpio_signal.h ****                                                                                                    
 209:.\source\rte/gpio_signal.h ****                                                                                                    
 210:.\source\rte/gpio_signal.h **** /**
 211:.\source\rte/gpio_signal.h ****  * Sets a new application value to the passed signal instance by passing the new value.
 212:.\source\rte/gpio_signal.h ****  * The corresponding driver raw value will be calculated immediately by using the default conversio
 213:.\source\rte/gpio_signal.h ****  * signal specific scaling function.
 214:.\source\rte/gpio_signal.h ****  * The signal age will be set to 0 and the new status will be 'RTE_SIGNALSTATUS_VALID'.
 215:.\source\rte/gpio_signal.h ****  *
 216:.\source\rte/gpio_signal.h ****  * @param  GPIO_t * const signal: Pointer to the signal object
 217:.\source\rte/gpio_signal.h ****  * @param  gpio_data_t const value: value for the application data buffer
 218:.\source\rte/gpio_signal.h ****  * @return RC_t: standard return code, currently only RC_SUCCESS
 219:.\source\rte/gpio_signal.h ****  *
 220:.\source\rte/gpio_signal.h ****  **/
 221:.\source\rte/gpio_signal.h **** inline RC_t RTE_GPIO_set(GPIO_t * const signal, const GPIO_data_t value  )
 222:.\source\rte/gpio_signal.h **** {
 223:.\source\rte/gpio_signal.h **** 
 224:.\source\rte/gpio_signal.h ****    RC_t ret = RC_SUCCESS;
 225:.\source\rte/gpio_signal.h **** 
 226:.\source\rte/gpio_signal.h **** 
 227:.\source\rte/gpio_signal.h ****    //Todo: critical section
 228:.\source\rte/gpio_signal.h ****     signal->value  = value;
  91              		.loc 4 228 0
  92 0040 194B     		ldr	r3, .L5+8
  93 0042 1A80     		strh	r2, [r3]	@ movhi
 229:.\source\rte/gpio_signal.h **** 	signal->age    = 0;
ARM GAS  C:\Users\Reza\AppData\Local\Temp\ccKIBcRQ.s 			page 15


  94              		.loc 4 229 0
  95 0044 5E60     		str	r6, [r3, #4]
 230:.\source\rte/gpio_signal.h **** 	signal->status = RTE_SIGNALSTATUS_VALID;
  96              		.loc 4 230 0
  97 0046 9D70     		strb	r5, [r3, #2]
  98              	.LVL6:
  99              	.LBE21:
 100              	.LBE20:
 101              	.LBB22:
 102              	.LBB23:
 103              		.file 5 ".\\source\\rte/lcd_signal.h"
   1:.\source\rte/lcd_signal.h **** /**
   2:.\source\rte/lcd_signal.h **** *  file    LCD_signal.h
   3:.\source\rte/lcd_signal.h **** *
   4:.\source\rte/lcd_signal.h **** *  brief   signal base class for signal lcd
   5:.\source\rte/lcd_signal.h **** *
   6:.\source\rte/lcd_signal.h **** *  author  Autogenerated, Peter Fromm       <peter.fromm@h-da.de>
   7:.\source\rte/lcd_signal.h **** *
   8:.\source\rte/lcd_signal.h **** *
   9:.\source\rte/lcd_signal.h **** */
  10:.\source\rte/lcd_signal.h **** 
  11:.\source\rte/lcd_signal.h **** #ifndef LCD_SIGNAL_H_INCLUDED
  12:.\source\rte/lcd_signal.h **** #define LCD_SIGNAL_H_INCLUDED
  13:.\source\rte/lcd_signal.h **** 
  14:.\source\rte/lcd_signal.h **** /*================================================[ configuration  ]===============================
  15:.\source\rte/lcd_signal.h **** #define LCD_DATATRIGGER OFF
  16:.\source\rte/lcd_signal.h **** 
  17:.\source\rte/lcd_signal.h **** /*================================================[ public includes  ]=============================
  18:.\source\rte/lcd_signal.h **** #include "global.h"
  19:.\source\rte/lcd_signal.h **** #include "project.h"
  20:.\source\rte/lcd_signal.h **** #include "rte.h"
  21:.\source\rte/lcd_signal.h **** 
  22:.\source\rte/lcd_signal.h **** #include "lcd_type.h"
  23:.\source\rte/lcd_signal.h **** #include "logging.h"
  24:.\source\rte/lcd_signal.h **** #include "led.h"
  25:.\source\rte/lcd_signal.h **** 
  26:.\source\rte/lcd_signal.h **** 
  27:.\source\rte/lcd_signal.h **** /**************************************************************************************************
  28:.\source\rte/lcd_signal.h **** /* The driver API block																						*/
  29:.\source\rte/lcd_signal.h **** /**************************************************************************************************
  30:.\source\rte/lcd_signal.h ****                                                                                                    
  31:.\source\rte/lcd_signal.h **** /**
  32:.\source\rte/lcd_signal.h ****  *  Definition of function types for driver interfaces.
  33:.\source\rte/lcd_signal.h ****  *  I-Port
  34:.\source\rte/lcd_signal.h ****  */
  35:.\source\rte/lcd_signal.h **** typedef RC_t (*LCD_driverIn_t)(LCD_data_t * const);
  36:.\source\rte/lcd_signal.h **** 
  37:.\source\rte/lcd_signal.h **** /**
  38:.\source\rte/lcd_signal.h ****  *  Definition of function types for driver interfaces.
  39:.\source\rte/lcd_signal.h ****  *  O-Port
  40:.\source\rte/lcd_signal.h ****  */
  41:.\source\rte/lcd_signal.h **** typedef RC_t (*LCD_driverOut_t)( const LCD_data_t * const);
  42:.\source\rte/lcd_signal.h **** 
  43:.\source\rte/lcd_signal.h **** 
  44:.\source\rte/lcd_signal.h **** /**************************************************************************************************
  45:.\source\rte/lcd_signal.h **** /* The signal configuration API block																				*/
  46:.\source\rte/lcd_signal.h **** /**************************************************************************************************
ARM GAS  C:\Users\Reza\AppData\Local\Temp\ccKIBcRQ.s 			page 16


  47:.\source\rte/lcd_signal.h **** 
  48:.\source\rte/lcd_signal.h **** /**
  49:.\source\rte/lcd_signal.h ****  * Instances of the struct LCD_cfg_t represent the signal object configuration.
  50:.\source\rte/lcd_signal.h ****  */
  51:.\source\rte/lcd_signal.h **** struct LCD_cfg_s
  52:.\source\rte/lcd_signal.h **** {
  53:.\source\rte/lcd_signal.h ****     /**
  54:.\source\rte/lcd_signal.h ****      * Function pointer to the input driver
  55:.\source\rte/lcd_signal.h ****      */
  56:.\source\rte/lcd_signal.h ****     LCD_driverIn_t const inDriver;
  57:.\source\rte/lcd_signal.h **** 
  58:.\source\rte/lcd_signal.h ****     /**
  59:.\source\rte/lcd_signal.h ****      * Function pointer to the output driver table
  60:.\source\rte/lcd_signal.h ****      */
  61:.\source\rte/lcd_signal.h ****    LCD_driverOut_t const outDriver;
  62:.\source\rte/lcd_signal.h ****    
  63:.\source\rte/lcd_signal.h ****     /**
  64:.\source\rte/lcd_signal.h ****      * Event onUpdate
  65:.\source\rte/lcd_signal.h ****      */
  66:.\source\rte/lcd_signal.h ****     EventMaskType const evOnUpdate;
  67:.\source\rte/lcd_signal.h **** 
  68:.\source\rte/lcd_signal.h **** };                                                                                                 
  69:.\source\rte/lcd_signal.h **** typedef const struct LCD_cfg_s LCD_cfg_t;
  70:.\source\rte/lcd_signal.h ****                               
  71:.\source\rte/lcd_signal.h **** /**************************************************************************************************
  72:.\source\rte/lcd_signal.h **** /* The data interface block																							*/
  73:.\source\rte/lcd_signal.h **** /**************************************************************************************************
  74:.\source\rte/lcd_signal.h **** 
  75:.\source\rte/lcd_signal.h ****                                                                                                    
  76:.\source\rte/lcd_signal.h **** 							  
  77:.\source\rte/lcd_signal.h **** /**
  78:.\source\rte/lcd_signal.h ****  * Instances of the struct LCD_t represent the signal objects.
  79:.\source\rte/lcd_signal.h ****  * A signal object contains the current application value 'value' as well as relevant meta data.
  80:.\source\rte/lcd_signal.h ****  */
  81:.\source\rte/lcd_signal.h **** struct LCD_s
  82:.\source\rte/lcd_signal.h **** {                                                                                                  
  83:.\source\rte/lcd_signal.h **** 
  84:.\source\rte/lcd_signal.h **** 	/**
  85:.\source\rte/lcd_signal.h **** 	 * Data buffer for the application value
  86:.\source\rte/lcd_signal.h **** 	 */
  87:.\source\rte/lcd_signal.h ****     LCD_data_t value;
  88:.\source\rte/lcd_signal.h **** 
  89:.\source\rte/lcd_signal.h ****     /**
  90:.\source\rte/lcd_signal.h ****      * Current signal status
  91:.\source\rte/lcd_signal.h ****      */
  92:.\source\rte/lcd_signal.h ****     RTE_signalStatus_t status;
  93:.\source\rte/lcd_signal.h **** 
  94:.\source\rte/lcd_signal.h ****     /**
  95:.\source\rte/lcd_signal.h ****      * Current age of the signal (in calling cycles)
  96:.\source\rte/lcd_signal.h ****      */
  97:.\source\rte/lcd_signal.h ****     uint32_t age;
  98:.\source\rte/lcd_signal.h **** 
  99:.\source\rte/lcd_signal.h ****     /**
 100:.\source\rte/lcd_signal.h ****      * Pointer to the signal configuration
 101:.\source\rte/lcd_signal.h ****      */
 102:.\source\rte/lcd_signal.h **** 	const LCD_cfg_t * const    pSigCfg;
 103:.\source\rte/lcd_signal.h **** 
ARM GAS  C:\Users\Reza\AppData\Local\Temp\ccKIBcRQ.s 			page 17


 104:.\source\rte/lcd_signal.h **** };                                                                                                 
 105:.\source\rte/lcd_signal.h **** typedef struct LCD_s LCD_t;
 106:.\source\rte/lcd_signal.h **** 
 107:.\source\rte/lcd_signal.h **** /**************************************************************************************************
 108:.\source\rte/lcd_signal.h **** /* Signal initialisation   																							*/
 109:.\source\rte/lcd_signal.h **** /**************************************************************************************************
 110:.\source\rte/lcd_signal.h **** 
 111:.\source\rte/lcd_signal.h **** /**
 112:.\source\rte/lcd_signal.h ****  * Initializes a signal instance with a passed init value.
 113:.\source\rte/lcd_signal.h ****  * Depending on the configured conversion or scaling function the raw_value will be calculated.
 114:.\source\rte/lcd_signal.h ****  * Signal status will change from RTE_SIGNALSTATUS_STARTUP to RTE_SIGNALSTATUS_INITIALIZED.
 115:.\source\rte/lcd_signal.h ****  *
 116:.\source\rte/lcd_signal.h ****  * @param  LCD_t * const signal: Pointer to the signal object which will be initialised
 117:.\source\rte/lcd_signal.h ****  * @param const lcd_data_t * const value: Pointer to initial value of the application data
 118:.\source\rte/lcd_signal.h ****  * @return RC_t: standard return code, currently only RC_SUCCESS
 119:.\source\rte/lcd_signal.h ****  *
 120:.\source\rte/lcd_signal.h ****  **/
 121:.\source\rte/lcd_signal.h **** inline RC_t RTE_LCD_init( LCD_t * const signal, const LCD_data_t * const value )
 122:.\source\rte/lcd_signal.h **** {                                                                                                  
 123:.\source\rte/lcd_signal.h **** 
 124:.\source\rte/lcd_signal.h ****    RC_t ret = RC_SUCCESS;
 125:.\source\rte/lcd_signal.h **** 
 126:.\source\rte/lcd_signal.h ****    //Set value and raw value
 127:.\source\rte/lcd_signal.h ****    signal->value  = *value;
 128:.\source\rte/lcd_signal.h ****    signal->age    = 0;
 129:.\source\rte/lcd_signal.h ****    signal->status = RTE_SIGNALSTATUS_INITIALIZED;
 130:.\source\rte/lcd_signal.h **** 
 131:.\source\rte/lcd_signal.h ****    return ret;
 132:.\source\rte/lcd_signal.h **** }
 133:.\source\rte/lcd_signal.h **** 
 134:.\source\rte/lcd_signal.h **** /**************************************************************************************************
 135:.\source\rte/lcd_signal.h **** /* Status and timeout control																						*/
 136:.\source\rte/lcd_signal.h **** /**************************************************************************************************
 137:.\source\rte/lcd_signal.h **** 
 138:.\source\rte/lcd_signal.h **** /**
 139:.\source\rte/lcd_signal.h ****  *  Returns the current signal status of the passed signal instance.
 140:.\source\rte/lcd_signal.h ****  *
 141:.\source\rte/lcd_signal.h ****  * @param  LCD_t * const signal: Pointer to the signal object
 142:.\source\rte/lcd_signal.h ****  * @return  sig_status_t: The current signal status
 143:.\source\rte/lcd_signal.h ****  *
 144:.\source\rte/lcd_signal.h ****  **/
 145:.\source\rte/lcd_signal.h **** inline RTE_signalStatus_t RTE_LCD_getStatus( const LCD_t * const signal )
 146:.\source\rte/lcd_signal.h **** {
 147:.\source\rte/lcd_signal.h ****    return signal->status;
 148:.\source\rte/lcd_signal.h **** }
 149:.\source\rte/lcd_signal.h **** 
 150:.\source\rte/lcd_signal.h **** 
 151:.\source\rte/lcd_signal.h **** /**
 152:.\source\rte/lcd_signal.h ****  *  Sets a new signal status of the passed signal instance by passing the new status.
 153:.\source\rte/lcd_signal.h ****  *
 154:.\source\rte/lcd_signal.h ****  * @param  LCD_t * const signal: Pointer to the signal object
 155:.\source\rte/lcd_signal.h ****  * @param  const sig_status_t status: New signal status
 156:.\source\rte/lcd_signal.h ****  * @return RC_t: standard return code, currently only RC_SUCCESS
 157:.\source\rte/lcd_signal.h ****  *
 158:.\source\rte/lcd_signal.h ****  */
 159:.\source\rte/lcd_signal.h **** inline RC_t RTE_LCD_setStatus( LCD_t * const signal, const RTE_signalStatus_t status )
 160:.\source\rte/lcd_signal.h **** {
ARM GAS  C:\Users\Reza\AppData\Local\Temp\ccKIBcRQ.s 			page 18


 161:.\source\rte/lcd_signal.h ****    signal->status = status;
 162:.\source\rte/lcd_signal.h ****    return RC_SUCCESS;
 163:.\source\rte/lcd_signal.h **** }
 164:.\source\rte/lcd_signal.h **** 
 165:.\source\rte/lcd_signal.h **** 
 166:.\source\rte/lcd_signal.h **** /**
 167:.\source\rte/lcd_signal.h ****  * Returns the count of refreshing trials (refresh, set or set_raw) that failed.
 168:.\source\rte/lcd_signal.h ****  * Prerquisite: The signal is refreshed cyclically
 169:.\source\rte/lcd_signal.h ****  *
 170:.\source\rte/lcd_signal.h ****  * @param  LCD_t * const signal: Pointer to the signal object
 171:.\source\rte/lcd_signal.h ****  * @return uint32_t: Number of cycles since the signal has been updated for the last time
 172:.\source\rte/lcd_signal.h ****  */
 173:.\source\rte/lcd_signal.h **** inline uint32_t RTE_LCD_getAge( const LCD_t * const signal )
 174:.\source\rte/lcd_signal.h **** {
 175:.\source\rte/lcd_signal.h ****    return signal->age;
 176:.\source\rte/lcd_signal.h **** }
 177:.\source\rte/lcd_signal.h **** 
 178:.\source\rte/lcd_signal.h **** /**
 179:.\source\rte/lcd_signal.h ****  * Should be called by application or driver if no new value can be provided.
 180:.\source\rte/lcd_signal.h ****  * @param  LCD_t * const signal: Pointer to the signal object
 181:.\source\rte/lcd_signal.h ****  * @param uint32_t increment: incrementvalue, typically in [ms]
 182:.\source\rte/lcd_signal.h ****  * @return void
 183:.\source\rte/lcd_signal.h ****  */
 184:.\source\rte/lcd_signal.h **** inline void RTE_LCD_incAge(  LCD_t * const signal , uint32_t increment)
 185:.\source\rte/lcd_signal.h **** {
 186:.\source\rte/lcd_signal.h **** 	   //Hack....
 187:.\source\rte/lcd_signal.h **** 	   if ( 0xFFFF0000 > (signal->age + increment) )
 188:.\source\rte/lcd_signal.h **** 	   {
 189:.\source\rte/lcd_signal.h **** 	      signal->age += increment;
 190:.\source\rte/lcd_signal.h **** 	   }
 191:.\source\rte/lcd_signal.h **** }
 192:.\source\rte/lcd_signal.h **** 
 193:.\source\rte/lcd_signal.h **** 
 194:.\source\rte/lcd_signal.h **** /**************************************************************************************************
 195:.\source\rte/lcd_signal.h **** /* Application Data read/write Interface																			*/
 196:.\source\rte/lcd_signal.h **** /**************************************************************************************************
 197:.\source\rte/lcd_signal.h **** 
 198:.\source\rte/lcd_signal.h **** /**
 199:.\source\rte/lcd_signal.h ****  * Returns the current application value of the passed signal instance.
 200:.\source\rte/lcd_signal.h ****  *
 201:.\source\rte/lcd_signal.h ****  * @param  LCD_t * const signal: Pointer to the signal object
 202:.\source\rte/lcd_signal.h ****  * @return lcd_data_t: current value of the application data buffer
 203:.\source\rte/lcd_signal.h ****  *
 204:.\source\rte/lcd_signal.h ****  **/
 205:.\source\rte/lcd_signal.h **** inline LCD_data_t RTE_LCD_get( const LCD_t * const signal )
 206:.\source\rte/lcd_signal.h **** {                                                                                                  
 207:.\source\rte/lcd_signal.h ****    return signal->value;                                                                           
 208:.\source\rte/lcd_signal.h **** }                                                                                                  
 209:.\source\rte/lcd_signal.h ****                                                                                                    
 210:.\source\rte/lcd_signal.h ****                                                                                                    
 211:.\source\rte/lcd_signal.h ****                                                                                                    
 212:.\source\rte/lcd_signal.h **** /**
 213:.\source\rte/lcd_signal.h ****  * Sets a new application value to the passed signal instance by passing the new value.
 214:.\source\rte/lcd_signal.h ****  * The corresponding driver raw value will be calculated immediately by using the default conversio
 215:.\source\rte/lcd_signal.h ****  * signal specific scaling function.
 216:.\source\rte/lcd_signal.h ****  * The signal age will be set to 0 and the new status will be 'RTE_SIGNALSTATUS_VALID'.
 217:.\source\rte/lcd_signal.h ****  *
ARM GAS  C:\Users\Reza\AppData\Local\Temp\ccKIBcRQ.s 			page 19


 218:.\source\rte/lcd_signal.h ****  * @param  LCD_t * const signal: Pointer to the signal object
 219:.\source\rte/lcd_signal.h ****  * @param  lcd_data_t const value: value for the application data buffer
 220:.\source\rte/lcd_signal.h ****  * @return RC_t: standard return code, currently only RC_SUCCESS
 221:.\source\rte/lcd_signal.h ****  *
 222:.\source\rte/lcd_signal.h ****  **/
 223:.\source\rte/lcd_signal.h **** inline RC_t RTE_LCD_set(LCD_t * const signal, const LCD_data_t value  )
 224:.\source\rte/lcd_signal.h **** {
 225:.\source\rte/lcd_signal.h **** 
 226:.\source\rte/lcd_signal.h ****    RC_t ret = RC_SUCCESS;
 227:.\source\rte/lcd_signal.h **** 
 228:.\source\rte/lcd_signal.h **** 
 229:.\source\rte/lcd_signal.h ****    //Todo: critical section
 230:.\source\rte/lcd_signal.h ****     signal->value  = value;
 104              		.loc 5 230 0
 105 0048 184B     		ldr	r3, .L5+12
 106 004a 1C70     		strb	r4, [r3]
 231:.\source\rte/lcd_signal.h **** 	signal->age    = 0;
 107              		.loc 5 231 0
 108 004c 5E60     		str	r6, [r3, #4]
 232:.\source\rte/lcd_signal.h **** 	signal->status = RTE_SIGNALSTATUS_VALID;
 109              		.loc 5 232 0
 110 004e 5D70     		strb	r5, [r3, #1]
 111              	.LVL7:
 112              	.LBE23:
 113              	.LBE22:
  38:source\asw/swc_control.c ****         RTE_GPIO_set(&BRAKELIGHT_signal,brakevalue);
  39:source\asw/swc_control.c ****         lcdvalue.str=enginvalue.m_pwm;
  40:source\asw/swc_control.c ****         x=joystickvalue.m_x;
  41:source\asw/swc_control.c ****         //sprintf(str, "x: %d", x);
  42:source\asw/swc_control.c ****         //LOG_I(str,"");
  43:source\asw/swc_control.c ****         //xx=enginvalue.m_pwm;
  44:source\asw/swc_control.c ****         //sprintf(str, "xx: %d", xx);
  45:source\asw/swc_control.c ****         //LOG_I(str,"");
  46:source\asw/swc_control.c ****         //lcdvalue.str=(uint8_t) (joystickvalue.m_x);
  47:source\asw/swc_control.c ****         RTE_LCD_set(&LCD_signal,lcdvalue);
  48:source\asw/swc_control.c ****         runnables.bit_field.run_calculateControl=1;
 114              		.loc 1 48 0
 115 0050 174A     		ldr	r2, .L5+16
 116 0052 1378     		ldrb	r3, [r2]	@ zero_extendqisi2
 117 0054 2B43     		orrs	r3, r3, r5
 118 0056 1370     		strb	r3, [r2]
 119 0058 1FE0     		b	.L1
 120              	.LVL8:
 121              	.L2:
  49:source\asw/swc_control.c ****         //CancelAlarm(alrm_error);
  50:source\asw/swc_control.c ****     }
  51:source\asw/swc_control.c ****     else
  52:source\asw/swc_control.c ****     {
  53:source\asw/swc_control.c ****         enginvalue.m_pwm = 0;
 122              		.loc 1 53 0
 123 005a 0024     		movs	r4, #0
 124              	.LVL9:
 125              	.LBB24:
 126              	.LBB25:
 228:.\source\rte/pwm_signal.h **** 	signal->age    = 0;
 127              		.loc 3 228 0
 128 005c 114B     		ldr	r3, .L5+4
ARM GAS  C:\Users\Reza\AppData\Local\Temp\ccKIBcRQ.s 			page 20


 129 005e 1C70     		strb	r4, [r3]
 229:.\source\rte/pwm_signal.h **** 	signal->status = RTE_SIGNALSTATUS_VALID;
 130              		.loc 3 229 0
 131 0060 5C60     		str	r4, [r3, #4]
 230:.\source\rte/pwm_signal.h **** 
 132              		.loc 3 230 0
 133 0062 0225     		movs	r5, #2
 134 0064 5D70     		strb	r5, [r3, #1]
 135              		.loc 3 233 0
 136 0066 9B68     		ldr	r3, [r3, #8]
 137 0068 9968     		ldr	r1, [r3, #8]
 138 006a 0320     		movs	r0, #3
 139 006c FFF7FEFF 		bl	EE_oo_SetEvent
 140              	.LVL10:
 141              	.LBE25:
 142              	.LBE24:
  54:source\asw/swc_control.c ****         RTE_PWM_set(&ENGINE_signal, enginvalue);
  55:source\asw/swc_control.c ****         brakevalue.LED_Type=LED_GREEN;
 143              		.loc 1 55 0
 144 0070 8DF81050 		strb	r5, [sp, #16]
  56:source\asw/swc_control.c ****         brakevalue.LED_State=LED_ON;
 145              		.loc 1 56 0
 146 0074 0123     		movs	r3, #1
 147 0076 8DF81130 		strb	r3, [sp, #17]
 148              	.LVL11:
 149 007a BDF81020 		ldrh	r2, [sp, #16]
 150 007e ADF80820 		strh	r2, [sp, #8]	@ movhi
 151              	.LVL12:
 152              	.LBB26:
 153              	.LBB27:
 228:.\source\rte/gpio_signal.h **** 	signal->age    = 0;
 154              		.loc 4 228 0
 155 0082 094B     		ldr	r3, .L5+8
 156 0084 1A80     		strh	r2, [r3]	@ movhi
 229:.\source\rte/gpio_signal.h **** 	signal->status = RTE_SIGNALSTATUS_VALID;
 157              		.loc 4 229 0
 158 0086 5C60     		str	r4, [r3, #4]
 159              		.loc 4 230 0
 160 0088 9D70     		strb	r5, [r3, #2]
 161              	.LVL13:
 162              	.LBE27:
 163              	.LBE26:
 164              	.LBB28:
 165              	.LBB29:
 230:.\source\rte/lcd_signal.h **** 	signal->age    = 0;
 166              		.loc 5 230 0
 167 008a 084B     		ldr	r3, .L5+12
 168 008c 1C70     		strb	r4, [r3]
 231:.\source\rte/lcd_signal.h **** 	signal->status = RTE_SIGNALSTATUS_VALID;
 169              		.loc 5 231 0
 170 008e 5C60     		str	r4, [r3, #4]
 171              		.loc 5 232 0
 172 0090 5D70     		strb	r5, [r3, #1]
 173              	.LVL14:
 174              	.LBE29:
 175              	.LBE28:
  57:source\asw/swc_control.c ****         RTE_GPIO_set(&BRAKELIGHT_signal,brakevalue);
ARM GAS  C:\Users\Reza\AppData\Local\Temp\ccKIBcRQ.s 			page 21


  58:source\asw/swc_control.c ****         lcdvalue.str=enginvalue.m_pwm;
  59:source\asw/swc_control.c ****         //lcdvalue.str=(uint8_t) (joystickvalue.m_x);
  60:source\asw/swc_control.c ****         RTE_LCD_set(&LCD_signal,lcdvalue);
  61:source\asw/swc_control.c ****         runnables.bit_field.run_calculateControl=1;
 176              		.loc 1 61 0
 177 0092 074A     		ldr	r2, .L5+16
 178 0094 1378     		ldrb	r3, [r2]	@ zero_extendqisi2
 179 0096 2B43     		orrs	r3, r3, r5
 180 0098 1370     		strb	r3, [r2]
 181              	.LVL15:
 182              	.L1:
  62:source\asw/swc_control.c ****         //CancelAlarm(alrm_error);
  63:source\asw/swc_control.c ****     }
  64:source\asw/swc_control.c **** }...
 183              		.loc 1 64 0
 184 009a 06B0     		add	sp, sp, #24
 185              		.cfi_def_cfa_offset 16
 186              		@ sp needed
 187 009c 70BD     		pop	{r4, r5, r6, pc}
 188              	.L6:
 189 009e 00BF     		.align	2
 190              	.L5:
 191 00a0 00000000 		.word	JOYSTICK_signal
 192 00a4 00000000 		.word	ENGINE_signal
 193 00a8 00000000 		.word	BRAKELIGHT_signal
 194 00ac 00000000 		.word	LCD_signal
 195 00b0 00000000 		.word	runnables
 196              		.cfi_endproc
 197              	.LFE150:
 198              		.size	run_calculateControl, .-run_calculateControl
 199              		.comm	runnables,1,4
 200              		.text
 201              	.Letext0:
 202              		.file 6 "c:\\program files (x86)\\cypress\\psoc creator\\4.4\\psoc creator\\import\\gnu\\arm\\5.4.
 203              		.file 7 "c:\\program files (x86)\\cypress\\psoc creator\\4.4\\psoc creator\\import\\gnu\\arm\\5.4.
 204              		.file 8 "Generated_Source\\PSoC5/cytypes.h"
 205              		.file 9 "Generated_Source\\PSoC5/ErikaOS_1_common_ee_types.inc"
 206              		.file 10 "Generated_Source\\PSoC5/ErikaOS_1_cortex_mx_ee_cpu.inc"
 207              		.file 11 "Generated_Source\\PSoC5/ErikaOS_1_ee_oo_common.inc"
 208              		.file 12 ".\\source\\bsw/global.h"
 209              		.file 13 ".\\source\\rte/rte.h"
 210              		.file 14 ".\\source\\rte/adc_type.h"
 211              		.file 15 ".\\source\\rte/pwm_type.h"
 212              		.file 16 ".\\source\\bsw\\labboard/led.h"
 213              		.file 17 ".\\source\\rte/gpio_type.h"
 214              		.file 18 ".\\source\\rte/lcd_type.h"
 215              		.file 19 ".\\source\\bsw\\watchdog/watchdog.h"
 216              		.file 20 "Generated_Source\\PSoC5/ErikaOS_1_ee_oo_intfunc.inc"
 217              		.file 21 "Generated_Source\\PSoC5/ErikaOS_1_cortex_mx_ee_context.inc"
 218              		.file 22 "Generated_Source\\PSoC5/ErikaOS_1_common_ee_primitives.inc"
 219              		.file 23 "Generated_Source\\PSoC5/core_cm3.h"
 220              		.file 24 ".\\source\\rte/rte_signalpool.h"
 221              		.file 25 "Generated_Source\\PSoC5/ErikaOS_1_ee_oo_kernel.inc"