ARM GAS  C:\Users\Reza\AppData\Local\Temp\ccQBrN6Q.s 			page 1


   1              		.syntax unified
   2              		.cpu cortex-m3
   3              		.fpu softvfp
   4              		.eabi_attribute 20, 1
   5              		.eabi_attribute 21, 1
   6              		.eabi_attribute 23, 3
   7              		.eabi_attribute 24, 1
   8              		.eabi_attribute 25, 1
   9              		.eabi_attribute 26, 1
  10              		.eabi_attribute 30, 1
  11              		.eabi_attribute 34, 1
  12              		.eabi_attribute 18, 4
  13              		.thumb
  14              		.syntax unified
  15              		.file	"watchdog.c"
  16              		.text
  17              	.Ltext0:
  18              		.cfi_sections	.debug_frame
  19              		.section	.text.WD_Start,"ax",%progbits
  20              		.align	2
  21              		.global	WD_Start
  22              		.thumb
  23              		.thumb_func
  24              		.type	WD_Start, %function
  25              	WD_Start:
  26              	.LFB114:
  27              		.file 1 "source\\bsw\\watchdog\\watchdog.c"
   1:source\bsw\watchdog/watchdog.c **** /**
   2:source\bsw\watchdog/watchdog.c **** * \file <filename>
   3:source\bsw\watchdog/watchdog.c **** * \author <author-name>
   4:source\bsw\watchdog/watchdog.c **** * \date <date>
   5:source\bsw\watchdog/watchdog.c **** *
   6:source\bsw\watchdog/watchdog.c **** * \brief <Symbolic File name>
   7:source\bsw\watchdog/watchdog.c **** *
   8:source\bsw\watchdog/watchdog.c **** * \copyright Copyright ©2016
   9:source\bsw\watchdog/watchdog.c **** * Department of electrical engineering and information technology, Hochschule Darmstadt - Universit
  10:source\bsw\watchdog/watchdog.c **** * Permission to use, copy, modify, and distribute this software and its documentation for education
  11:source\bsw\watchdog/watchdog.c **** * (unless permitted by h_da) and official h_da projects, is hereby granted for enrolled students of
  12:source\bsw\watchdog/watchdog.c **** * this paragraph and the following paragraph appear in all copies, modifications, and distributions
  13:source\bsw\watchdog/watchdog.c **** * Contact Prof.Dr.-Ing. Peter Fromm, peter.fromm@h-da.de, Birkenweg 8 64295 Darmstadt - GERMANY for
  14:source\bsw\watchdog/watchdog.c **** *
  15:source\bsw\watchdog/watchdog.c **** * \warning This software is a PROTOTYPE version and is not designed or intended for use in producti
  16:source\bsw\watchdog/watchdog.c **** * The user represents and warrants that it will NOT use or redistribute the Software for such purpo
  17:source\bsw\watchdog/watchdog.c **** * This prototype is for research purposes only. This software is provided "AS IS," without a warran
  18:source\bsw\watchdog/watchdog.c **** */
  19:source\bsw\watchdog/watchdog.c **** 
  20:source\bsw\watchdog/watchdog.c **** /*****************************************************************************/
  21:source\bsw\watchdog/watchdog.c **** /* Include files                                                             */
  22:source\bsw\watchdog/watchdog.c **** /*****************************************************************************/
  23:source\bsw\watchdog/watchdog.c **** 
  24:source\bsw\watchdog/watchdog.c **** #include "project.h"
  25:source\bsw\watchdog/watchdog.c **** #include "watchdog.h"
  26:source\bsw\watchdog/watchdog.c **** #include "logging.h"
  27:source\bsw\watchdog/watchdog.c **** 
  28:source\bsw\watchdog/watchdog.c **** 
  29:source\bsw\watchdog/watchdog.c **** /*****************************************************************************/
  30:source\bsw\watchdog/watchdog.c **** /* Local pre-processor symbols/macros ('#define')                            */
ARM GAS  C:\Users\Reza\AppData\Local\Temp\ccQBrN6Q.s 			page 2


  31:source\bsw\watchdog/watchdog.c **** /*****************************************************************************/
  32:source\bsw\watchdog/watchdog.c **** 
  33:source\bsw\watchdog/watchdog.c **** /*****************************************************************************/
  34:source\bsw\watchdog/watchdog.c **** /* Global variable definitions (declared in header file with 'extern')       */
  35:source\bsw\watchdog/watchdog.c **** /*****************************************************************************/
  36:source\bsw\watchdog/watchdog.c **** extern cy_en_em_eeprom_status_t eepromReturnStatus;
  37:source\bsw\watchdog/watchdog.c **** extern uint8_t eepromReturnValue;
  38:source\bsw\watchdog/watchdog.c **** /*****************************************************************************/
  39:source\bsw\watchdog/watchdog.c **** /* Local type definitions ('typedef')                                        */
  40:source\bsw\watchdog/watchdog.c **** /*****************************************************************************/
  41:source\bsw\watchdog/watchdog.c **** #define USED_EEPROM_SECTOR1          (1u)
  42:source\bsw\watchdog/watchdog.c **** #define RESET_COUNTER_BYTE1          ((USED_EEPROM_SECTOR1 * CYDEV_EEPROM_SECTOR_SIZE) + 0x00)
  43:source\bsw\watchdog/watchdog.c **** 
  44:source\bsw\watchdog/watchdog.c **** 
  45:source\bsw\watchdog/watchdog.c **** /*****************************************************************************/
  46:source\bsw\watchdog/watchdog.c **** /* Local variable definitions ('static')                                     */
  47:source\bsw\watchdog/watchdog.c **** /*****************************************************************************/
  48:source\bsw\watchdog/watchdog.c **** 
  49:source\bsw\watchdog/watchdog.c **** 
  50:source\bsw\watchdog/watchdog.c **** /*****************************************************************************/
  51:source\bsw\watchdog/watchdog.c **** /* Local function prototypes ('static')                                      */
  52:source\bsw\watchdog/watchdog.c **** /*****************************************************************************/
  53:source\bsw\watchdog/watchdog.c **** 
  54:source\bsw\watchdog/watchdog.c **** /*****************************************************************************/
  55:source\bsw\watchdog/watchdog.c **** /* Function implementation - global ('extern') and local ('static')          */
  56:source\bsw\watchdog/watchdog.c **** /*****************************************************************************/
  57:source\bsw\watchdog/watchdog.c **** 
  58:source\bsw\watchdog/watchdog.c **** /**
  59:source\bsw\watchdog/watchdog.c ****  * Initialises the LED's and turns them off
  60:source\bsw\watchdog/watchdog.c ****  * @return RC_SUCCESS if function was executed as exepected, other error code in case of error
  61:source\bsw\watchdog/watchdog.c ****  */
  62:source\bsw\watchdog/watchdog.c **** RC_t WD_Start(WDT_TimeOut_t* timeout)
  63:source\bsw\watchdog/watchdog.c **** {
  28              		.loc 1 63 0
  29              		.cfi_startproc
  30              		@ args = 0, pretend = 0, frame = 0
  31              		@ frame_needed = 0, uses_anonymous_args = 0
  32              	.LVL0:
  33 0000 08B5     		push	{r3, lr}
  34              		.cfi_def_cfa_offset 8
  35              		.cfi_offset 3, -8
  36              		.cfi_offset 14, -4
  37              	.LVL1:
  64:source\bsw\watchdog/watchdog.c ****     RC_t result = RC_SUCCESS;
  65:source\bsw\watchdog/watchdog.c ****     CyWdtStart(timeout->timer,timeout->mode); 
  38              		.loc 1 65 0
  39 0002 4178     		ldrb	r1, [r0, #1]	@ zero_extendqisi2
  40 0004 0078     		ldrb	r0, [r0]	@ zero_extendqisi2
  41              	.LVL2:
  42 0006 FFF7FEFF 		bl	CyWdtStart
  43              	.LVL3:
  66:source\bsw\watchdog/watchdog.c ****     return result;
  67:source\bsw\watchdog/watchdog.c **** }
  44              		.loc 1 67 0
  45 000a 0020     		movs	r0, #0
  46 000c 08BD     		pop	{r3, pc}
  47              		.cfi_endproc
ARM GAS  C:\Users\Reza\AppData\Local\Temp\ccQBrN6Q.s 			page 3


  48              	.LFE114:
  49              		.size	WD_Start, .-WD_Start
  50 000e 00BF     		.section	.text.WD_Trigger,"ax",%progbits
  51              		.align	2
  52              		.global	WD_Trigger
  53              		.thumb
  54              		.thumb_func
  55              		.type	WD_Trigger, %function
  56              	WD_Trigger:
  57              	.LFB115:
  68:source\bsw\watchdog/watchdog.c **** 
  69:source\bsw\watchdog/watchdog.c **** /**
  70:source\bsw\watchdog/watchdog.c ****  * Sets the required LED
  71:source\bsw\watchdog/watchdog.c ****  * @param LED_t ledId - Identifier for the LED, ALL will change all LED's
  72:source\bsw\watchdog/watchdog.c ****  * @param LED_ONOFF_t ledOnOff - Trun the led on or off
  73:source\bsw\watchdog/watchdog.c ****  * @return RC_SUCCESS if function was executed as exepected, other error code in case of error
  74:source\bsw\watchdog/watchdog.c ****  */
  75:source\bsw\watchdog/watchdog.c **** RC_t WD_Trigger()
  76:source\bsw\watchdog/watchdog.c **** {
  58              		.loc 1 76 0
  59              		.cfi_startproc
  60              		@ args = 0, pretend = 0, frame = 0
  61              		@ frame_needed = 0, uses_anonymous_args = 0
  62 0000 10B5     		push	{r4, lr}
  63              		.cfi_def_cfa_offset 8
  64              		.cfi_offset 4, -8
  65              		.cfi_offset 14, -4
  66              	.LVL4:
  77:source\bsw\watchdog/watchdog.c **** 	RC_t result = RC_SUCCESS;
  78:source\bsw\watchdog/watchdog.c ****     uint8_t value=0;
  79:source\bsw\watchdog/watchdog.c ****     char str[50];
  80:source\bsw\watchdog/watchdog.c ****     value=runnables.byte;
  67              		.loc 1 80 0
  68 0002 0C4B     		ldr	r3, .L7
  69 0004 1C78     		ldrb	r4, [r3]	@ zero_extendqisi2
  70              	.LVL5:
  81:source\bsw\watchdog/watchdog.c ****     if(runnables.byte == 0x1F)
  71              		.loc 1 81 0
  72 0006 1B78     		ldrb	r3, [r3]	@ zero_extendqisi2
  73 0008 DBB2     		uxtb	r3, r3
  74 000a 1F2B     		cmp	r3, #31
  75 000c 05D1     		bne	.L4
  82:source\bsw\watchdog/watchdog.c ****     {
  83:source\bsw\watchdog/watchdog.c ****         //LOG_I("CyWdtClear","");
  84:source\bsw\watchdog/watchdog.c ****         //UART_LOG_PutString("Value: 0x");
  85:source\bsw\watchdog/watchdog.c ****         //sprintf(str, "%02X ", value) ;
  86:source\bsw\watchdog/watchdog.c ****         //LOG_I(str,"");
  87:source\bsw\watchdog/watchdog.c ****         //EEPROM_WriteByte(value, 0);
  88:source\bsw\watchdog/watchdog.c ****         //eepromReturnValue = EEPROM_ReadByte(0);
  89:source\bsw\watchdog/watchdog.c ****         //sprintf(str, "eepromReturnValue: %d", eepromReturnValue);
  90:source\bsw\watchdog/watchdog.c ****         //UART_LOG_PutString("EEPROM_ReadByte(0): 0x");
  91:source\bsw\watchdog/watchdog.c ****         //sprintf(str, "%02X ", EEPROM_ReadByte(0)) ;
  92:source\bsw\watchdog/watchdog.c ****         //LOG_I(str,"");
  93:source\bsw\watchdog/watchdog.c ****         //UART_LOG_PutString("Success to write runnable info to Em_EEPROM! \n\r");
  94:source\bsw\watchdog/watchdog.c ****         CyWdtClear();
  76              		.loc 1 94 0
  77 000e FFF7FEFF 		bl	CyWdtClear
ARM GAS  C:\Users\Reza\AppData\Local\Temp\ccQBrN6Q.s 			page 4


  78              	.LVL6:
  95:source\bsw\watchdog/watchdog.c ****         result = RC_SUCCESS;
  96:source\bsw\watchdog/watchdog.c ****         runnables.byte = 0x00;
  79              		.loc 1 96 0
  80 0012 0022     		movs	r2, #0
  81 0014 074B     		ldr	r3, .L7
  82 0016 1A70     		strb	r2, [r3]
  83 0018 09E0     		b	.L5
  84              	.L4:
  85 001a E4B2     		uxtb	r4, r4
  97:source\bsw\watchdog/watchdog.c ****     }
  98:source\bsw\watchdog/watchdog.c ****     else
  99:source\bsw\watchdog/watchdog.c ****     {
 100:source\bsw\watchdog/watchdog.c ****         //eepromReturnStatus = Em_EEPROM_Write(0u, &value, 1u);
 101:source\bsw\watchdog/watchdog.c ****         //sprintf(str, "value: %d", value);
 102:source\bsw\watchdog/watchdog.c ****         //LOG_I(str,"");
 103:source\bsw\watchdog/watchdog.c ****         if(value != EEPROM_ReadByte(0)){
  86              		.loc 1 103 0
  87 001c 0020     		movs	r0, #0
  88 001e FFF7FEFF 		bl	EEPROM_ReadByte
  89              	.LVL7:
  90 0022 8442     		cmp	r4, r0
  91 0024 03D0     		beq	.L5
 104:source\bsw\watchdog/watchdog.c ****         EEPROM_WriteByte(value, 0);
  92              		.loc 1 104 0
  93 0026 0021     		movs	r1, #0
  94 0028 2046     		mov	r0, r4
  95 002a FFF7FEFF 		bl	EEPROM_WriteByte
  96              	.LVL8:
  97              	.L5:
 105:source\bsw\watchdog/watchdog.c ****         }
 106:source\bsw\watchdog/watchdog.c ****         //EEPROM_WriteByte(value, RESET_COUNTER_BYTE1);
 107:source\bsw\watchdog/watchdog.c ****         //eepromReturnValue = EEPROM_ReadByte(RESET_COUNTER_BYTE1);
 108:source\bsw\watchdog/watchdog.c ****         //sprintf(str, "eepromReturnValue: %d", eepromReturnValue);
 109:source\bsw\watchdog/watchdog.c ****         //LOG_I(str,"");
 110:source\bsw\watchdog/watchdog.c ****         //UART_LOG_PutString("Success to write runnable info to Em_EEPROM! \n\r");
 111:source\bsw\watchdog/watchdog.c ****         
 112:source\bsw\watchdog/watchdog.c **** //        if(eepromReturnStatus != CY_EM_EEPROM_SUCCESS)
 113:source\bsw\watchdog/watchdog.c **** //        {
 114:source\bsw\watchdog/watchdog.c **** //            UART_LOG_PutString("Error to write runnable info to Em_EEPROM! \n\r");
 115:source\bsw\watchdog/watchdog.c **** //        }
 116:source\bsw\watchdog/watchdog.c **** //        else
 117:source\bsw\watchdog/watchdog.c **** //        {
 118:source\bsw\watchdog/watchdog.c **** //            UART_LOG_PutString("Success to write runnable info to Em_EEPROM! \n\r");
 119:source\bsw\watchdog/watchdog.c **** //        }
 120:source\bsw\watchdog/watchdog.c ****     //LOG_I("Not CyWdtClear","");
 121:source\bsw\watchdog/watchdog.c ****     result = RC_SUCCESS;
 122:source\bsw\watchdog/watchdog.c ****     }
 123:source\bsw\watchdog/watchdog.c ****     return result;
 124:source\bsw\watchdog/watchdog.c **** }
  98              		.loc 1 124 0
  99 002e 0020     		movs	r0, #0
 100 0030 10BD     		pop	{r4, pc}
 101              	.L8:
 102 0032 00BF     		.align	2
 103              	.L7:
 104 0034 00000000 		.word	runnables
ARM GAS  C:\Users\Reza\AppData\Local\Temp\ccQBrN6Q.s 			page 5


 105              		.cfi_endproc
 106              	.LFE115:
 107              		.size	WD_Trigger, .-WD_Trigger
 108              		.section	.text.WD_CheckResetBit,"ax",%progbits
 109              		.align	2
 110              		.global	WD_CheckResetBit
 111              		.thumb
 112              		.thumb_func
 113              		.type	WD_CheckResetBit, %function
 114              	WD_CheckResetBit:
 115              	.LFB116:
 125:source\bsw\watchdog/watchdog.c **** 
 126:source\bsw\watchdog/watchdog.c **** 
 127:source\bsw\watchdog/watchdog.c **** 
 128:source\bsw\watchdog/watchdog.c **** /**
 129:source\bsw\watchdog/watchdog.c ****  * Toggle the required LED
 130:source\bsw\watchdog/watchdog.c ****  * @param LED_t ledId - Identifier for the LED, ALL will change all LED's
 131:source\bsw\watchdog/watchdog.c ****  * @return RC_SUCCESS if function was executed as exepected, other error code in case of error
 132:source\bsw\watchdog/watchdog.c ****  */
 133:source\bsw\watchdog/watchdog.c **** boolean_t WD_CheckResetBit()
 134:source\bsw\watchdog/watchdog.c **** {
 116              		.loc 1 134 0
 117              		.cfi_startproc
 118              		@ args = 0, pretend = 0, frame = 32
 119              		@ frame_needed = 0, uses_anonymous_args = 0
 120 0000 10B5     		push	{r4, lr}
 121              		.cfi_def_cfa_offset 8
 122              		.cfi_offset 4, -8
 123              		.cfi_offset 14, -4
 124 0002 88B0     		sub	sp, sp, #32
 125              		.cfi_def_cfa_offset 40
 126              	.LVL9:
 135:source\bsw\watchdog/watchdog.c ****     boolean_t result = FALSE;
 136:source\bsw\watchdog/watchdog.c ****     char str[30];
 137:source\bsw\watchdog/watchdog.c ****     uint8_t reset_status = *((uint8_t *)CYREG_PHUB_CFGMEM23_CFG1) ;
 127              		.loc 1 137 0
 128 0004 0A4B     		ldr	r3, .L13
 129 0006 1C78     		ldrb	r4, [r3]	@ zero_extendqisi2
 130              	.LVL10:
 138:source\bsw\watchdog/watchdog.c ****     sprintf(str, "reset_status: %d", reset_status);
 131              		.loc 1 138 0
 132 0008 2246     		mov	r2, r4
 133 000a 0A49     		ldr	r1, .L13+4
 134 000c 6846     		mov	r0, sp
 135 000e FFF7FEFF 		bl	sprintf
 136              	.LVL11:
 139:source\bsw\watchdog/watchdog.c ****     UART_LOG_PutString(str);
 137              		.loc 1 139 0
 138 0012 6846     		mov	r0, sp
 139 0014 FFF7FEFF 		bl	UART_LOG_PutString
 140              	.LVL12:
 140:source\bsw\watchdog/watchdog.c ****     UART_LOG_PutString("\n");
 141              		.loc 1 140 0
 142 0018 0748     		ldr	r0, .L13+8
 143 001a FFF7FEFF 		bl	UART_LOG_PutString
 144              	.LVL13:
 141:source\bsw\watchdog/watchdog.c ****     
ARM GAS  C:\Users\Reza\AppData\Local\Temp\ccQBrN6Q.s 			page 6


 142:source\bsw\watchdog/watchdog.c ****     if(reset_status & 0x08u)
 145              		.loc 1 142 0
 146 001e 14F0080F 		tst	r4, #8
 147 0022 01D0     		beq	.L11
 143:source\bsw\watchdog/watchdog.c ****     {
 144:source\bsw\watchdog/watchdog.c ****         result=TRUE;
 148              		.loc 1 144 0
 149 0024 0120     		movs	r0, #1
 150 0026 00E0     		b	.L10
 151              	.L11:
 145:source\bsw\watchdog/watchdog.c ****     }
 146:source\bsw\watchdog/watchdog.c ****     else
 147:source\bsw\watchdog/watchdog.c ****     {
 148:source\bsw\watchdog/watchdog.c ****         result=FALSE;
 152              		.loc 1 148 0
 153 0028 0020     		movs	r0, #0
 154              	.L10:
 155              	.LVL14:
 149:source\bsw\watchdog/watchdog.c ****     }
 150:source\bsw\watchdog/watchdog.c ****     return result;
 151:source\bsw\watchdog/watchdog.c **** }
 156              		.loc 1 151 0
 157 002a 08B0     		add	sp, sp, #32
 158              		.cfi_def_cfa_offset 8
 159              		@ sp needed
 160 002c 10BD     		pop	{r4, pc}
 161              	.LVL15:
 162              	.L14:
 163 002e 00BF     		.align	2
 164              	.L13:
 165 0030 BC760040 		.word	1073772220
 166 0034 00000000 		.word	.LC0
 167 0038 14000000 		.word	.LC1
 168              		.cfi_endproc
 169              	.LFE116:
 170              		.size	WD_CheckResetBit, .-WD_CheckResetBit
 171              		.comm	runnables,1,4
 172              		.section	.rodata.str1.4,"aMS",%progbits,1
 173              		.align	2
 174              	.LC0:
 175 0000 72657365 		.ascii	"reset_status: %d\000"
 175      745F7374 
 175      61747573 
 175      3A202564 
 175      00
 176 0011 000000   		.space	3
 177              	.LC1:
 178 0014 0A00     		.ascii	"\012\000"
 179              		.text
 180              	.Letext0:
 181              		.file 2 "c:\\program files (x86)\\cypress\\psoc creator\\4.4\\psoc creator\\import\\gnu\\arm\\5.4.
 182              		.file 3 "c:\\program files (x86)\\cypress\\psoc creator\\4.4\\psoc creator\\import\\gnu\\arm\\5.4.
 183              		.file 4 "Generated_Source\\PSoC5/ErikaOS_1_common_ee_types.inc"
 184              		.file 5 "Generated_Source\\PSoC5/ErikaOS_1_cortex_mx_ee_cpu.inc"
 185              		.file 6 ".\\source\\bsw/global.h"
 186              		.file 7 "source\\bsw\\watchdog\\watchdog.h"
 187              		.file 8 "Generated_Source\\PSoC5/ErikaOS_1_ee_oo_intfunc.inc"
ARM GAS  C:\Users\Reza\AppData\Local\Temp\ccQBrN6Q.s 			page 7


 188              		.file 9 "Generated_Source\\PSoC5/ErikaOS_1_cortex_mx_ee_context.inc"
 189              		.file 10 "Generated_Source\\PSoC5/ErikaOS_1_common_ee_primitives.inc"
 190              		.file 11 "Generated_Source\\PSoC5/core_cm3.h"
 191              		.file 12 "Generated_Source\\PSoC5/CyLib.h"
 192              		.file 13 "Generated_Source\\PSoC5/EEPROM.h"
 193              		.file 14 "c:\\program files (x86)\\cypress\\psoc creator\\4.4\\psoc creator\\import\\gnu\\arm\\5.4
 194              		.file 15 "Generated_Source\\PSoC5/UART_LOG.h"